Archive member included because of file (symbol)

./obj/local/armeabi-v7a/libpc_ardrone.a(ardrone_version.o)
                              ./obj/local/armeabi-v7a/objs/adfreeflight/app.o (getDroneVersion)
./obj/local/armeabi-v7a/libpc_ardrone.a(ardrone_ftp.o)
                              ./obj/local/armeabi-v7a/objs/adfreeflight/Stubs/ftp_client_stub.o (ftpAbort)
./obj/local/armeabi-v7a/libpc_ardrone.a(ardrone_video_atoms.o)
                              ./obj/local/armeabi-v7a/objs/adfreeflight/Stubs/transcoding_service_stub.o (writeAtomToFile)
./obj/local/armeabi-v7a/libpc_ardrone.a(ardrone_video_encapsuler.o)
                              ./obj/local/armeabi-v7a/objs/adfreeflight/Stubs/drone_stub.o (ardrone_video_set_gps_infos)
./obj/local/armeabi-v7a/libpc_ardrone.a(video_stage_encoded_recorder.o)
                              ./obj/local/armeabi-v7a/objs/adfreeflight/Stubs/drone_stub.o (video_stage_encoded_recorder_enable)
./obj/local/armeabi-v7a/libpc_ardrone.a(video_stage_latency_estimation.o)
                              ./obj/local/armeabi-v7a/objs/adfreeflight/app.o (vp_stages_latency_estimation_funcs)
./obj/local/armeabi-v7a/libpc_ardrone.a(video_recorder_pipeline.o)
                              ./obj/local/armeabi-v7a/objs/adfreeflight/app.o (video_recorder_suspend_thread)
./obj/local/armeabi-v7a/libpc_ardrone.a(video_stage.o)
                              ./obj/local/armeabi-v7a/objs/adfreeflight/Stubs/drone_stub.o (video_stage_get_num_retries)
./obj/local/armeabi-v7a/libpc_ardrone.a(AR_Ftw.o)
                              ./obj/local/armeabi-v7a/libpc_ardrone.a(ardrone_video_encapsuler.o) (nftw)
./obj/local/armeabi-v7a/libpc_ardrone.a(ardrone_at_mutex.o)
                              ./obj/local/armeabi-v7a/objs/adfreeflight/Stubs/drone_stub.o (ardrone_at_set_calibration)
./obj/local/armeabi-v7a/libpc_ardrone.a(academy.o)
                              ./obj/local/armeabi-v7a/libpc_ardrone.a(video_stage_encoded_recorder.o) (flight_dir)
./obj/local/armeabi-v7a/libpc_ardrone.a(academy_upload.o)
                              ./obj/local/armeabi-v7a/libpc_ardrone.a(academy.o) (academy_upload_shutdown)
./obj/local/armeabi-v7a/libpc_ardrone.a(academy_stage_recorder.o)
                              ./obj/local/armeabi-v7a/libpc_ardrone.a(video_stage.o) (ardrone_academy_stage_recorder_config)
./obj/local/armeabi-v7a/libpc_ardrone.a(ardrone_navdata_file.o)
                              ./obj/local/armeabi-v7a/libpc_ardrone.a(ardrone_at_mutex.o) (nd_iphone_phi)
./obj/local/armeabi-v7a/libpc_ardrone.a(ardrone_general_navdata.o)
                              ./obj/local/armeabi-v7a/objs/adfreeflight/NavData/nav_data.o (ardrone_general_navdata_release)
./obj/local/armeabi-v7a/libpc_ardrone.a(ardrone_academy_navdata.o)
                              ./obj/local/armeabi-v7a/objs/adfreeflight/Stubs/drone_stub.o (ardrone_academy_navdata_get_camera_state)
./obj/local/armeabi-v7a/libpc_ardrone.a(ardrone_input.o)
                              ./obj/local/armeabi-v7a/libpc_ardrone.a(ardrone_academy_navdata.o) (ardrone_tool_set_ui_pad_select)
./obj/local/armeabi-v7a/libpc_ardrone.a(ardrone_tool_configuration.o)
                              ./obj/local/armeabi-v7a/objs/adfreeflight/Controller/ardrone_controller.o (ardrone_control_config)
./obj/local/armeabi-v7a/libpc_ardrone.a(ardrone_tool.o)
                              ./obj/local/armeabi-v7a/objs/adfreeflight/app.o (ardrone_tool_set_refresh_time)
./obj/local/armeabi-v7a/libpc_ardrone.a(config_wifi.o)
                              ./obj/local/armeabi-v7a/libpc_ardrone.a(video_recorder_pipeline.o) (wifi_com)
./obj/local/armeabi-v7a/libpc_ardrone.a(video_com_stage.o)
                              ./obj/local/armeabi-v7a/libpc_ardrone.a(video_recorder_pipeline.o) (video_com_funcs)
./obj/local/armeabi-v7a/libpc_ardrone.a(video_navdata_handler.o)
                              ./obj/local/armeabi-v7a/objs/adfreeflight/NavData/nav_data.o (video_navdata_handler_init)
./obj/local/armeabi-v7a/libpc_ardrone.a(ardrone_control.o)
                              ./obj/local/armeabi-v7a/libpc_ardrone.a(ardrone_tool_configuration.o) (ardrone_control_send_event)
./obj/local/armeabi-v7a/libpc_ardrone.a(ardrone_navdata_control.o)
                              ./obj/local/armeabi-v7a/objs/adfreeflight/NavData/nav_data.o (ardrone_navdata_control_init)
./obj/local/armeabi-v7a/libpc_ardrone.a(ardrone_navdata_client.o)
                              ./obj/local/armeabi-v7a/objs/adfreeflight/Stubs/drone_stub.o (ardrone_navdata_client_get_num_retries)
./obj/local/armeabi-v7a/libpc_ardrone.a(iniparser.o)
                              ./obj/local/armeabi-v7a/libpc_ardrone.a(ardrone_tool_configuration.o) (iniparser_alias)
./obj/local/armeabi-v7a/libpc_ardrone.a(dictionary.o)
                              ./obj/local/armeabi-v7a/libpc_ardrone.a(iniparser.o) (dictionary_del)
./obj/local/armeabi-v7a/libpc_ardrone.a(navdata.o)
                              ./obj/local/armeabi-v7a/libpc_ardrone.a(ardrone_navdata_client.o) (ardrone_navdata_compute_cks)
./obj/local/armeabi-v7a/libpc_ardrone.a(config_keys.o)
                              ./obj/local/armeabi-v7a/libpc_ardrone.a(ardrone_tool_configuration.o) (default_accs_offset)
./obj/local/armeabi-v7a/libpc_ardrone.a(ardrone_time.o)
                              ./obj/local/armeabi-v7a/libpc_ardrone.a(ardrone_tool.o) (ardrone_timer_update)
./obj/local/armeabi-v7a/libpc_ardrone.a(ardrone_date.o)
                              ./obj/local/armeabi-v7a/libpc_ardrone.a(video_stage_encoded_recorder.o) (ardrone_time2date)
./obj/local/armeabi-v7a/libpc_ardrone.a(ardrone_gen_ids.o)
                              ./obj/local/armeabi-v7a/libpc_ardrone.a(ardrone_tool.o) (ardrone_gen_sessionid)
./obj/local/armeabi-v7a/libpc_ardrone.a(video_stage_tcp.o)
                              ./obj/local/armeabi-v7a/libpc_ardrone.a(video_recorder_pipeline.o) (video_stage_tcp_funcs)
./obj/local/armeabi-v7a/libpc_ardrone.a(video_stage_merge_slices.o)
                              ./obj/local/armeabi-v7a/libpc_ardrone.a(video_stage.o) (video_stage_merge_slices_funcs)
./obj/local/armeabi-v7a/libpc_ardrone.a(video_stage_decoder.o)
                              ./obj/local/armeabi-v7a/libpc_ardrone.a(video_stage.o) (video_decoding_funcs)
./obj/local/armeabi-v7a/libpc_ardrone.a(academy_download.o)
                              ./obj/local/armeabi-v7a/libpc_ardrone.a(ardrone_academy_navdata.o) (academy_download_resume)
./obj/local/armeabi-v7a/libpc_ardrone.a(ardrone_control_configuration.o)
                              ./obj/local/armeabi-v7a/libpc_ardrone.a(ardrone_control.o) (ardrone_control_configuration_run)
./obj/local/armeabi-v7a/libpc_ardrone.a(ardrone_control_ack.o)
                              ./obj/local/armeabi-v7a/libpc_ardrone.a(ardrone_control.o) (ardrone_control_ack_run)
./obj/local/armeabi-v7a/libpc_ardrone.a(ardrone_crc_32.o)
                              ./obj/local/armeabi-v7a/libpc_ardrone.a(ardrone_gen_ids.o) (ardrone_crc_32)
./obj/local/armeabi-v7a/libpc_ardrone.a(video_encapsulation.o)
                              ./obj/local/armeabi-v7a/libpc_ardrone.a(video_stage_merge_slices.o) (pave_is_same_frame)
./obj/local/armeabi-v7a/libpc_ardrone.a(video_stage_ffmpeg_decoder.o)
                              ./obj/local/armeabi-v7a/libpc_ardrone.a(video_stage_decoder.o) (ffmpeg_stage_decoding_close)
./obj/local/armeabi-v7a/libpc_ardrone.a(video_stage_ittiam_decoder.o)
                              ./obj/local/armeabi-v7a/libpc_ardrone.a(video_stage_decoder.o) (ittiam_stage_decoding_open)
./obj/local/armeabi-v7a/libvlib.a(vlib_stage_decode.o)
                              ./obj/local/armeabi-v7a/libpc_ardrone.a(video_stage_decoder.o) (vlib_stage_decoding_close)
./obj/local/armeabi-v7a/libvlib.a(video_codec.o)
                              ./obj/local/armeabi-v7a/libvlib.a(vlib_stage_decode.o) (video_decode_blockline)
./obj/local/armeabi-v7a/libvlib.a(video_controller.o)
                              ./obj/local/armeabi-v7a/libvlib.a(video_codec.o) (video_controller_set_format)
./obj/local/armeabi-v7a/libvlib.a(video_packetizer.o)
                              ./obj/local/armeabi-v7a/libvlib.a(video_codec.o) (video_cache_stream)
./obj/local/armeabi-v7a/libvlib.a(video_quantizer.o)
                              ./obj/local/armeabi-v7a/libvlib.a(video_codec.o) (video_quantizer_init)
./obj/local/armeabi-v7a/libvlib.a(p263_codec.o)
                              ./obj/local/armeabi-v7a/libvlib.a(video_codec.o) (p263_codec_free)
./obj/local/armeabi-v7a/libvlib.a(p263_huffman.o)
                              ./obj/local/armeabi-v7a/libvlib.a(p263_codec.o) (vlc_mcbpc_ipictures)
./obj/local/armeabi-v7a/libvlib.a(p263_mb_layer.o)
                              ./obj/local/armeabi-v7a/libvlib.a(p263_codec.o) (p263_read_mb_layer)
./obj/local/armeabi-v7a/libvlib.a(p263_gob_layer.o)
                              ./obj/local/armeabi-v7a/libvlib.a(p263_codec.o) (p263_read_gob_layer)
./obj/local/armeabi-v7a/libvlib.a(p263_picture_layer.o)
                              ./obj/local/armeabi-v7a/libvlib.a(p263_codec.o) (p263_read_picture_layer)
./obj/local/armeabi-v7a/libvlib.a(p264_codec.o)
                              ./obj/local/armeabi-v7a/libvlib.a(video_codec.o) (p264_codec_free)
./obj/local/armeabi-v7a/libvlib.a(p264_gob_layer.o)
                              ./obj/local/armeabi-v7a/libvlib.a(p264_codec.o) (p264_read_gob_layer)
./obj/local/armeabi-v7a/libvlib.a(p264_mb_layer.o)
                              ./obj/local/armeabi-v7a/libvlib.a(p264_codec.o) (p264_write_mb_layer)
./obj/local/armeabi-v7a/libvlib.a(p264_picture_layer.o)
                              ./obj/local/armeabi-v7a/libvlib.a(p264_codec.o) (p264_read_picture_layer)
./obj/local/armeabi-v7a/libvlib.a(video_p264.o)
                              ./obj/local/armeabi-v7a/libvlib.a(p264_codec.o) (video_p264_prepare_slice)
./obj/local/armeabi-v7a/libvlib.a(uvlc_codec.o)
                              ./obj/local/armeabi-v7a/libvlib.a(video_codec.o) (uvlc_codec_free)
./obj/local/armeabi-v7a/libvlib.a(uvlc_gob_layer.o)
                              ./obj/local/armeabi-v7a/libvlib.a(uvlc_codec.o) (uvlc_read_gob_layer)
./obj/local/armeabi-v7a/libvlib.a(uvlc_mb_layer.o)
                              ./obj/local/armeabi-v7a/libvlib.a(uvlc_codec.o) (uvlc_read_mb_layer)
./obj/local/armeabi-v7a/libvlib.a(uvlc_picture_layer.o)
                              ./obj/local/armeabi-v7a/libvlib.a(uvlc_codec.o) (uvlc_read_picture_layer)
./obj/local/armeabi-v7a/libvlib.a(video_utils.o)
                              ./obj/local/armeabi-v7a/libvlib.a(video_codec.o) (video_utils_init)
./obj/local/armeabi-v7a/libvlib.a(video_mem32.o)
                              ./obj/local/armeabi-v7a/libvlib.a(p263_codec.o) (video_copy32)
./obj/local/armeabi-v7a/libvlib.a(video_dct.o)
                              ./obj/local/armeabi-v7a/libvlib.a(uvlc_codec.o) (video_fdct_compute)
./obj/local/armeabi-v7a/libvlib.a(video_huffman.o)
                              ./obj/local/armeabi-v7a/libvlib.a(p263_codec.o) (huffman_add_codes)
./obj/local/armeabi-v7a/libvlib.a(video_macroblock.o)
                              ./obj/local/armeabi-v7a/libvlib.a(p263_mb_layer.o) (video_zztable_t81)
./obj/local/armeabi-v7a/libvlib.a(video_picture.o)
                              ./obj/local/armeabi-v7a/libvlib.a(p264_codec.o) (video_blockline_from_blockline)
./obj/local/armeabi-v7a/libvlib.a(p264_zigzag.o)
                              ./obj/local/armeabi-v7a/libvlib.a(video_p264.o) (zagzig_4x4)
./obj/local/armeabi-v7a/libvlib.a(p264_transform.o)
                              ./obj/local/armeabi-v7a/libvlib.a(video_p264.o) (p264_hadamard_2x2)
./obj/local/armeabi-v7a/libvlib.a(p264_Qp.o)
                              ./obj/local/armeabi-v7a/libvlib.a(video_p264.o) (p264_4x4_residual_scale)
./obj/local/armeabi-v7a/libvlib.a(p264_intra_pred.o)
                              ./obj/local/armeabi-v7a/libvlib.a(video_p264.o) (p264_intra_4x4_luma)
./obj/local/armeabi-v7a/libvlib.a(p264_inter_mc.o)
                              ./obj/local/armeabi-v7a/libvlib.a(video_p264.o) (p264_inter_mc_chroma)
./obj/local/armeabi-v7a/libvlib.a(p264_merge.o)
                              ./obj/local/armeabi-v7a/libvlib.a(video_p264.o) (p264_merge_4x4)
./obj/local/armeabi-v7a/libvlib.a(p264.o)
                              ./obj/local/armeabi-v7a/libvlib.a(p264_mb_layer.o) (p264_decode)
./obj/local/armeabi-v7a/libvlib.a(uvlc.o)
                              ./obj/local/armeabi-v7a/libvlib.a(uvlc_mb_layer.o) (uvlc_decode)
./obj/local/armeabi-v7a/libsdk.a(vp_os_malloc.o)
                              ./obj/local/armeabi-v7a/objs/adfreeflight/video_stage_io_file.o (vp_os_realloc)
./obj/local/armeabi-v7a/libsdk.a(vp_api.o)
                              ./obj/local/armeabi-v7a/objs/adfreeflight/Stubs/transcoding_service_stub.o (vp_api_close)
./obj/local/armeabi-v7a/libsdk.a(vp_api_supervisor.o)
                              ./obj/local/armeabi-v7a/libsdk.a(vp_api.o) (vp_api_add_pipeline)
./obj/local/armeabi-v7a/libsdk.a(vp_api_thread_helper.o)
                              ./obj/local/armeabi-v7a/objs/adfreeflight/app.o (vp_api_change_thread_prio_tab)
./obj/local/armeabi-v7a/libsdk.a(ATcodec_api.o)
                              ./obj/local/armeabi-v7a/libpc_ardrone.a(ardrone_at_mutex.o) (ATcodec_Shutdown_Library)
./obj/local/armeabi-v7a/libsdk.a(vp_com.o)
                              ./obj/local/armeabi-v7a/libpc_ardrone.a(ardrone_tool.o) (vp_com_network_adapter_lookup)
./obj/local/armeabi-v7a/libsdk.a(vp_com_error.o)
                              ./obj/local/armeabi-v7a/libsdk.a(vp_com.o) (vp_com_formatMessage)
./obj/local/armeabi-v7a/libsdk.a(vp_os_signal.o)
                              ./obj/local/armeabi-v7a/objs/adfreeflight/Stubs/transcoding_service_stub.o (vp_os_cond_signal)
./obj/local/armeabi-v7a/libsdk.a(vp_os_delay.o)
                              ./obj/local/armeabi-v7a/objs/adfreeflight/app.o (vp_os_delay)
./obj/local/armeabi-v7a/libsdk.a(vp_os_thread.o)
                              ./obj/local/armeabi-v7a/objs/adfreeflight/Stubs/transcoding_service_stub.o (vp_os_thread_priority)
./obj/local/armeabi-v7a/libsdk.a(vp_com_wifi.o)
                              ./obj/local/armeabi-v7a/libsdk.a(vp_com.o) (vp_com_wf_init)
./obj/local/armeabi-v7a/libsdk.a(vp_com_socket.o)
                              ./obj/local/armeabi-v7a/libsdk.a(vp_com.o) (vp_com_sockopt_ip)
./obj/local/armeabi-v7a/libsdk.a(vp_com_socket_utils.o)
                              ./obj/local/armeabi-v7a/libsdk.a(vp_com_socket.o) (vp_com_fill_read_fs)
./obj/local/armeabi-v7a/libsdk.a(vp_com_config_itf.o)
                              ./obj/local/armeabi-v7a/libsdk.a(vp_com_wifi.o) (vp_com_config_itf)
./obj/local/armeabi-v7a/libsdk.a(vp_os_error_handling.o)
                              ./obj/local/armeabi-v7a/libsdk.a(vp_com.o) (vp_os_install_error_handler)
./obj/local/armeabi-v7a/libsdk.a(ATcodec_Memory.o)
                              ./obj/local/armeabi-v7a/libsdk.a(ATcodec_api.o) (ATcodec_Memory_Init)
./obj/local/armeabi-v7a/libsdk.a(ATcodec_Buffer.o)
                              ./obj/local/armeabi-v7a/libsdk.a(ATcodec_api.o) (ATcodec_Buffer_getElement)
./obj/local/armeabi-v7a/libsdk.a(ATcodec.o)
                              ./obj/local/armeabi-v7a/libsdk.a(ATcodec_api.o) (vp_atcodec_sprintf_params)
./obj/local/armeabi-v7a/libsdk.a(ATcodec_Tree.o)
                              ./obj/local/armeabi-v7a/libsdk.a(ATcodec_api.o) (ATcodec_Tree_print)
./obj/local/armeabi-v7a/h264_dec_lib.a(decoder_api_main.rel.rvds.o)
                              ./obj/local/armeabi-v7a/libpc_ardrone.a(video_stage_ittiam_decoder.o) (ih264d_cxa8_api_function)
./obj/local/armeabi-v7a/h264_dec_lib.a(h264dec_ittiam_api_define.rel.rvds.o)
                              ./obj/local/armeabi-v7a/h264_dec_lib.a(decoder_api_main.rel.rvds.o) (itt_api_h264_get_num_rec)
./obj/local/armeabi-v7a/h264_dec_lib.a(cncl.rel.rvds.o)
                              ./obj/local/armeabi-v7a/h264_dec_lib.a(h264dec_ittiam_api_define.rel.rvds.o) (icncl_api_function)
./obj/local/armeabi-v7a/h264_dec_lib.a(bufapi_ittiam_ialg.rel.rvds.o)
                              ./obj/local/armeabi-v7a/h264_dec_lib.a(h264dec_ittiam_api_define.rel.rvds.o) (BUFAPI_ITTIAM_control)
./obj/local/armeabi-v7a/h264_dec_lib.a(bufferAPI.rel.rvds.o)
                              ./obj/local/armeabi-v7a/h264_dec_lib.a(bufapi_ittiam_ialg.rel.rvds.o) (ReleaseBuf)
./obj/local/armeabi-v7a/h264_dec_lib.a(decInterface.rel.rvds.o)
                              ./obj/local/armeabi-v7a/h264_dec_lib.a(h264dec_ittiam_api_define.rel.rvds.o) (InitDecoder)
./obj/local/armeabi-v7a/h264_dec_lib.a(decPicDelimitProc.rel.rvds.o)
                              ./obj/local/armeabi-v7a/h264_dec_lib.a(decInterface.rel.rvds.o) (ReleaseDisplayBufs)
./obj/local/armeabi-v7a/h264_dec_lib.a(decodeSlice.rel.rvds.o)
                              ./obj/local/armeabi-v7a/h264_dec_lib.a(h264dec_ittiam_api_define.rel.rvds.o) (deblock_display)
./obj/local/armeabi-v7a/h264_dec_lib.a(decodeUVLC.rel.rvds.o)
                              ./obj/local/armeabi-v7a/h264_dec_lib.a(decodeSlice.rel.rvds.o) (get_uev)
./obj/local/armeabi-v7a/h264_dec_lib.a(dpbManager.rel.rvds.o)
                              ./obj/local/armeabi-v7a/h264_dec_lib.a(decInterface.rel.rvds.o) (InitRefBufs)
./obj/local/armeabi-v7a/h264_dec_lib.a(dpb_opt.rel.rvds.o)
                              ./obj/local/armeabi-v7a/h264_dec_lib.a(decPicDelimitProc.rel.rvds.o) (delete_nonref_nondisplay_pics)
./obj/local/armeabi-v7a/h264_dec_lib.a(errorhandler.rel.rvds.o)
                              ./obj/local/armeabi-v7a/h264_dec_lib.a(decodeSlice.rel.rvds.o) (GlobalErrorHandler)
./obj/local/armeabi-v7a/h264_dec_lib.a(gaps_in_frm.rel.rvds.o)
                              ./obj/local/armeabi-v7a/h264_dec_lib.a(decodeSlice.rel.rvds.o) (decode_gaps_in_frame_num)
./obj/local/armeabi-v7a/h264_dec_lib.a(globals.rel.rvds.o)
                              ./obj/local/armeabi-v7a/h264_dec_lib.a(decInterface.rel.rvds.o) (guc_colocatedMapFldToFrm)
./obj/local/armeabi-v7a/h264_dec_lib.a(memRequest.rel.rvds.o)
                              ./obj/local/armeabi-v7a/h264_dec_lib.a(decPicDelimitProc.rel.rvds.o) (CreatePicBuffers)
./obj/local/armeabi-v7a/h264_dec_lib.a(memoryAPI.rel.rvds.o)
                              ./obj/local/armeabi-v7a/h264_dec_lib.a(memRequest.rel.rvds.o) (IttiamMalloc)
./obj/local/armeabi-v7a/h264_dec_lib.a(nal.rel.rvds.o)
                              ./obj/local/armeabi-v7a/h264_dec_lib.a(h264dec_ittiam_api_define.rel.rvds.o) (FindStartCode)
./obj/local/armeabi-v7a/h264_dec_lib.a(tables.rel.rvds.o)
                              ./obj/local/armeabi-v7a/h264_dec_lib.a(decInterface.rel.rvds.o) (g_pu1_intra_pred_err_code)
./obj/local/armeabi-v7a/h264_dec_lib.a(format_conv_to_422i.rel.rvds.o)
                              ./obj/local/armeabi-v7a/h264_dec_lib.a(decPicDelimitProc.rel.rvds.o) (IH264D_CXA8_YUV420toRGB565)
./obj/local/armeabi-v7a/h264_dec_lib.a(arm_computeBS.rel.rvds.o)
                              ./obj/local/armeabi-v7a/h264_dec_lib.a(decInterface.rel.rvds.o) (fill_bs1_non16x16mb_pslice)
./obj/local/armeabi-v7a/h264_dec_lib.a(arm_copyRef.rel.rvds.o)
                              ./obj/local/armeabi-v7a/h264_dec_lib.a(decInterface.rel.rvds.o) (copyRef_4)
./obj/local/armeabi-v7a/h264_dec_lib.a(arm_doIntraPredNon4x4.rel.rvds.o)
                              ./obj/local/armeabi-v7a/h264_dec_lib.a(decInterface.rel.rvds.o) (DoIntraPredChroma_VERT)
./obj/local/armeabi-v7a/h264_dec_lib.a(arm_interpolateChroma.rel.rvds.o)
                              ./obj/local/armeabi-v7a/h264_dec_lib.a(decInterface.rel.rvds.o) (interpolateChroma_2)
./obj/local/armeabi-v7a/h264_dec_lib.a(arm_rep_mv_colz.rel.rvds.o)
                              ./obj/local/armeabi-v7a/h264_dec_lib.a(decInterface.rel.rvds.o) (rep_mv_colz_1x1)
./obj/local/armeabi-v7a/h264_dec_lib.a(arm_sixtapHVInterpolHPelGrid.rel.rvds.o)
                              ./obj/local/armeabi-v7a/h264_dec_lib.a(decInterface.rel.rvds.o) (sixtaphv_intpolhpel_4)
./obj/local/armeabi-v7a/h264_dec_lib.a(arm_sixtapHorizInterpolQsamp.rel.rvds.o)
                              ./obj/local/armeabi-v7a/h264_dec_lib.a(decInterface.rel.rvds.o) (sixtaphoriz_intqsamp_4)
./obj/local/armeabi-v7a/h264_dec_lib.a(arm_sixtapVHInterpolHPelGrid.rel.rvds.o)
                              ./obj/local/armeabi-v7a/h264_dec_lib.a(decInterface.rel.rvds.o) (sixtapvh_intpolhpel_4)
./obj/local/armeabi-v7a/h264_dec_lib.a(arm_sixtapVHInterpolQSamp.rel.rvds.o)
                              ./obj/local/armeabi-v7a/h264_dec_lib.a(decInterface.rel.rvds.o) (sixtapvh_intqsamp_4)
./obj/local/armeabi-v7a/h264_dec_lib.a(arm_sixtapVertInterpolQsamp.rel.rvds.o)
                              ./obj/local/armeabi-v7a/h264_dec_lib.a(decInterface.rel.rvds.o) (sixtapvert_intqsamp_4)
./obj/local/armeabi-v7a/h264_dec_lib.a(arm_sixtapfilt2dHV.rel.rvds.o)
                              ./obj/local/armeabi-v7a/h264_dec_lib.a(decInterface.rel.rvds.o) (sixtapfilt_2dhv_4)
./obj/local/armeabi-v7a/h264_dec_lib.a(arm_sixtapfiltHoriz.rel.rvds.o)
                              ./obj/local/armeabi-v7a/h264_dec_lib.a(decInterface.rel.rvds.o) (sixtapfilter_horiz_4)
./obj/local/armeabi-v7a/h264_dec_lib.a(arm_sixtapfiltVert.rel.rvds.o)
                              ./obj/local/armeabi-v7a/h264_dec_lib.a(decInterface.rel.rvds.o) (sixtapfilter_vert_4)
./obj/local/armeabi-v7a/h264_dec_lib.a(arm_Padding.rel.rvds.o)
                              ./obj/local/armeabi-v7a/h264_dec_lib.a(decInterface.rel.rvds.o) (pad_on_demand_CHROM_TOP)
./obj/local/armeabi-v7a/h264_dec_lib.a(arm_default_weighted_Pred.rel.rvds.o)
                              ./obj/local/armeabi-v7a/h264_dec_lib.a(decInterface.rel.rvds.o) (defaultWeightedPred_wid4)
./obj/local/armeabi-v7a/h264_dec_lib.a(arm_idct.rel.rvds.o)
                              ./obj/local/armeabi-v7a/h264_dec_lib.a(decInterface.rel.rvds.o) (arm_dequant_invtrans_add_pred_chroma_mod)
./obj/local/armeabi-v7a/h264_dec_lib.a(arm_intra4x4_mb.rel.rvds.o)
                              ./obj/local/armeabi-v7a/h264_dec_lib.a(decInterface.rel.rvds.o) (DoIntraPred4x4_VERT)
./obj/local/armeabi-v7a/h264_dec_lib.a(format_conv_to_yuv422i.rel.rvds.o)
                              ./obj/local/armeabi-v7a/h264_dec_lib.a(decPicDelimitProc.rel.rvds.o) (IH264D_CXA8_YUV420toYUV422I)
./obj/local/armeabi-v7a/h264_dec_lib.a(MotionCompensate.rel.rvds.o)
                              ./obj/local/armeabi-v7a/h264_dec_lib.a(decodeSlice.rel.rvds.o) (formMbPartInfo_BP)
./obj/local/armeabi-v7a/h264_dec_lib.a(ParseSyntax.rel.rvds.o)
                              ./obj/local/armeabi-v7a/h264_dec_lib.a(decInterface.rel.rvds.o) (cavlc_parse_8x8block_both_available)
./obj/local/armeabi-v7a/h264_dec_lib.a(decBitStream.rel.rvds.o)
                              ./obj/local/armeabi-v7a/h264_dec_lib.a(decodeSlice.rel.rvds.o) (GetBit_h264)
./obj/local/armeabi-v7a/h264_dec_lib.a(decComputBS.rel.rvds.o)
                              ./obj/local/armeabi-v7a/h264_dec_lib.a(decodeSlice.rel.rvds.o) (ComputeBSNonMbAff)
./obj/local/armeabi-v7a/h264_dec_lib.a(decComputeQp.rel.rvds.o)
                              ./obj/local/armeabi-v7a/h264_dec_lib.a(ParseSyntax.rel.rvds.o) (UpdateQp)
./obj/local/armeabi-v7a/h264_dec_lib.a(decDeblocking.rel.rvds.o)
                              ./obj/local/armeabi-v7a/h264_dec_lib.a(decodeSlice.rel.rvds.o) (DeblockPicture_Baselineonly)
./obj/local/armeabi-v7a/h264_dec_lib.a(decHiLevSyntax.rel.rvds.o)
                              ./obj/local/armeabi-v7a/h264_dec_lib.a(decInterface.rel.rvds.o) (DecodeNalUnit)
./obj/local/armeabi-v7a/h264_dec_lib.a(decMotionVector.rel.rvds.o)
                              ./obj/local/armeabi-v7a/h264_dec_lib.a(decodeSlice.rel.rvds.o) (mvpred_nonmbaff)
./obj/local/armeabi-v7a/h264_dec_lib.a(decodeISlice.rel.rvds.o)
                              ./obj/local/armeabi-v7a/h264_dec_lib.a(decodeSlice.rel.rvds.o) (DecodeISlice)
./obj/local/armeabi-v7a/h264_dec_lib.a(decodeIntraMB.rel.rvds.o)
                              ./obj/local/armeabi-v7a/h264_dec_lib.a(ParseSyntax.rel.rvds.o) (ReadIntraPredModes)
./obj/local/armeabi-v7a/h264_dec_lib.a(decodePSlice.rel.rvds.o)
                              ./obj/local/armeabi-v7a/h264_dec_lib.a(decodeSlice.rel.rvds.o) (DecodePSlice)
./obj/local/armeabi-v7a/h264_dec_lib.a(decodeResidual.rel.rvds.o)
                              ./obj/local/armeabi-v7a/h264_dec_lib.a(ParseSyntax.rel.rvds.o) (ItransRecLumaDC)
./obj/local/armeabi-v7a/h264_dec_lib.a(sei.rel.rvds.o)
                              ./obj/local/armeabi-v7a/h264_dec_lib.a(decHiLevSyntax.rel.rvds.o) (parse_sei_message)
./obj/local/armeabi-v7a/h264_dec_lib.a(utils.rel.rvds.o)
                              ./obj/local/armeabi-v7a/h264_dec_lib.a(decHiLevSyntax.rel.rvds.o) (GetNumBitsInValue)
./obj/local/armeabi-v7a/h264_dec_lib.a(vui.rel.rvds.o)
                              ./obj/local/armeabi-v7a/h264_dec_lib.a(decHiLevSyntax.rel.rvds.o) (parse_vui_parametres)
./obj/local/armeabi-v7a/h264_dec_lib.a(arm_getMotionVectorPredictor.rel.rvds.o)
                              ./obj/local/armeabi-v7a/h264_dec_lib.a(decMotionVector.rel.rvds.o) (GetMotionVectorPredictor)
./obj/local/armeabi-v7a/h264_dec_lib.a(arm_DeblkChroma.rel.rvds.o)
                              ./obj/local/armeabi-v7a/h264_dec_lib.a(decDeblocking.rel.rvds.o) (DeblkHorzChromaEdgeBs4)
./obj/local/armeabi-v7a/h264_dec_lib.a(arm_DeblkLuma.rel.rvds.o)
                              ./obj/local/armeabi-v7a/h264_dec_lib.a(decDeblocking.rel.rvds.o) (DeblkHorzEdgeLumaNonBs4)
./obj/local/armeabi-v7a/h264_dec_lib.a(arm_memset.rel.rvds.o)
                              ./obj/local/armeabi-v7a/h264_dec_lib.a(ParseSyntax.rel.rvds.o) (memset_MB)
./obj/local/armeabi-v7a/h264_dec_lib.a(ParsePSyntax.rel.rvds.o)
                              ./obj/local/armeabi-v7a/h264_dec_lib.a(ParseSyntax.rel.rvds.o) (UpdateNnzForSkipMb)
./obj/local/armeabi-v7a/h264_dec_lib.a(decMbUtils.rel.rvds.o)
                              ./obj/local/armeabi-v7a/h264_dec_lib.a(decodeISlice.rel.rvds.o) (get_mb_info_cavlc_nonmbaff)
./obj/local/armeabi-v7a/h264_dec_lib.a(DecodeSyntax.rel.rvds.o)
                              ./obj/local/armeabi-v7a/h264_dec_lib.a(ParsePSyntax.rel.rvds.o) (DecodeIntraMb)
./obj/local/armeabi-v7a/mpeg4_asp_dec_lib.a(decoder_api_main.o)
                              ./obj/local/armeabi-v7a/libpc_ardrone.a(video_stage_ittiam_decoder.o) (imp4d_cxa8_api_function)
./obj/local/armeabi-v7a/mpeg4_asp_dec_lib.a(inv_ac_dc_pred.o)
                              ./obj/local/armeabi-v7a/mpeg4_asp_dec_lib.a(decoder_api_main.o) (imp4d_cxa8_InitAcDcStructures)
./obj/local/armeabi-v7a/mpeg4_asp_dec_lib.a(it_picbuf.o)
                              ./obj/local/armeabi-v7a/mpeg4_asp_dec_lib.a(decoder_api_main.o) (imp4d_cxa8_PicBufMgGetDisp)
./obj/local/armeabi-v7a/mpeg4_asp_dec_lib.a(mv_decode.o)
                              ./obj/local/armeabi-v7a/mpeg4_asp_dec_lib.a(decoder_api_main.o) (imp4d_cxa8_ResetMVBankwhenIntraVop)
./obj/local/armeabi-v7a/mpeg4_asp_dec_lib.a(save_restore_cntx.o)
                              ./obj/local/armeabi-v7a/mpeg4_asp_dec_lib.a(decoder_api_main.o) (imp4d_cxa8_size_of_stack_ctxt)
./obj/local/armeabi-v7a/mpeg4_asp_dec_lib.a(utils.o)
                              ./obj/local/armeabi-v7a/mpeg4_asp_dec_lib.a(decoder_api_main.o) (imp4d_cxa8_InitMvBank)
./obj/local/armeabi-v7a/mpeg4_asp_dec_lib.a(videobitstream.o)
                              ./obj/local/armeabi-v7a/mpeg4_asp_dec_lib.a(decoder_api_main.o) (imp4d_cxa8_VideoPlaneWithShortHeader)
./obj/local/armeabi-v7a/mpeg4_asp_dec_lib.a(ApplyFilter_n_GetQuarterPelVal_cortexA8_neon.o)
                              ./obj/local/armeabi-v7a/mpeg4_asp_dec_lib.a(videobitstream.o) (imp4d_cxa8_ApplyFilterQuarterPel_9x9)
./obj/local/armeabi-v7a/mpeg4_asp_dec_lib.a(interlace_mot_comp_notcoded_cortexA8_neon.o)
                              ./obj/local/armeabi-v7a/mpeg4_asp_dec_lib.a(videobitstream.o) (imp4d_cxa8_fullxfully_I_notcoded)
./obj/local/armeabi-v7a/mpeg4_asp_dec_lib.a(mot_comp_cortexA8_neon.o)
                              ./obj/local/armeabi-v7a/mpeg4_asp_dec_lib.a(videobitstream.o) (imp4d_cxa8_fullxhalfy_notcoded_rnd_val_1)
./obj/local/armeabi-v7a/mpeg4_asp_dec_lib.a(mot_comp_interlace_cortexA8_neon.o)
                              ./obj/local/armeabi-v7a/mpeg4_asp_dec_lib.a(videobitstream.o) (imp4d_cxa8_fullxfully_I)
./obj/local/armeabi-v7a/mpeg4_asp_dec_lib.a(mv_decode_cortexA8_neon.o)
                              ./obj/local/armeabi-v7a/mpeg4_asp_dec_lib.a(mv_decode.o) (imp4d_cxa8_GetPredictorInter)
./obj/local/armeabi-v7a/mpeg4_asp_dec_lib.a(format_conv_to_yuv422i.o)
                              ./obj/local/armeabi-v7a/mpeg4_asp_dec_lib.a(decoder_api_main.o) (imp4d_cxa8_YUV420toYUV422I)
./obj/local/armeabi-v7a/mpeg4_asp_dec_lib.a(format_conv_to_422i.o)
                              ./obj/local/armeabi-v7a/mpeg4_asp_dec_lib.a(decoder_api_main.o) (imp4d_cxa8_YUV420_RGB565)
./obj/local/armeabi-v7a/mpeg4_asp_dec_lib.a(basebitstream.o)
                              ./obj/local/armeabi-v7a/mpeg4_asp_dec_lib.a(videobitstream.o) (imp4d_cxa8_VOPSwapLogic)
./obj/local/armeabi-v7a/mpeg4_asp_dec_lib.a(bitstream.o)
                              ./obj/local/armeabi-v7a/mpeg4_asp_dec_lib.a(decoder_api_main.o) (imp4d_cxa8_find_bytes_read)
./obj/local/armeabi-v7a/mpeg4_asp_dec_lib.a(blockdecode.o)
                              ./obj/local/armeabi-v7a/mpeg4_asp_dec_lib.a(videobitstream.o) (imp4d_cxa8_BuildBlockCoeffMatrix_Vlc)
./obj/local/armeabi-v7a/mpeg4_asp_dec_lib.a(decodebvop.o)
                              ./obj/local/armeabi-v7a/mpeg4_asp_dec_lib.a(basebitstream.o) (imp4d_cxa8_DecodeBVOP)
./obj/local/armeabi-v7a/mpeg4_asp_dec_lib.a(decodeivop.o)
                              ./obj/local/armeabi-v7a/mpeg4_asp_dec_lib.a(basebitstream.o) (imp4d_cxa8_DataPartitionedIVop)
./obj/local/armeabi-v7a/mpeg4_asp_dec_lib.a(decodepvop.o)
                              ./obj/local/armeabi-v7a/mpeg4_asp_dec_lib.a(basebitstream.o) (imp4d_cxa8_DataPartitionedPVop)
./obj/local/armeabi-v7a/mpeg4_asp_dec_lib.a(dequantizer.o)
                              ./obj/local/armeabi-v7a/mpeg4_asp_dec_lib.a(videobitstream.o) (imp4d_cxa8_Dequantizer_QuantType0)
./obj/local/armeabi-v7a/mpeg4_asp_dec_lib.a(global_error_hadler.o)
                              ./obj/local/armeabi-v7a/mpeg4_asp_dec_lib.a(mv_decode.o) (imp4d_cxa8_global_error_handler)
./obj/local/armeabi-v7a/mpeg4_asp_dec_lib.a(globals.o)
                              ./obj/local/armeabi-v7a/mpeg4_asp_dec_lib.a(decodeivop.o) (g_imp4d_cxa8_Dc_scalar_0)
./obj/local/armeabi-v7a/mpeg4_asp_dec_lib.a(idct.o)
                              ./obj/local/armeabi-v7a/mpeg4_asp_dec_lib.a(blockdecode.o) (imp4d_cxa8_dequant_idct_intra)
./obj/local/armeabi-v7a/mpeg4_asp_dec_lib.a(interlace.o)
                              ./obj/local/armeabi-v7a/mpeg4_asp_dec_lib.a(decodepvop.o) (imp4d_cxa8_MotionCompensate_P_I)
./obj/local/armeabi-v7a/mpeg4_asp_dec_lib.a(motioncompensate.o)
                              ./obj/local/armeabi-v7a/mpeg4_asp_dec_lib.a(basebitstream.o) (imp4d_cxa8_MotionCompensateForwOrBackQuarterPel)
./obj/local/armeabi-v7a/mpeg4_asp_dec_lib.a(rvlc.o)
                              ./obj/local/armeabi-v7a/mpeg4_asp_dec_lib.a(blockdecode.o) (imp4d_cxa8_RvlcTcoeff)
./obj/local/armeabi-v7a/mpeg4_asp_dec_lib.a(rvlc_tables.o)
                              ./obj/local/armeabi-v7a/mpeg4_asp_dec_lib.a(blockdecode.o) (g_imp4d_cxa8_rvlc_Inter)
./obj/local/armeabi-v7a/mpeg4_asp_dec_lib.a(vldecoder.o)
                              ./obj/local/armeabi-v7a/mpeg4_asp_dec_lib.a(decodebvop.o) (imp4d_cxa8_vld_opt)
./obj/local/armeabi-v7a/mpeg4_asp_dec_lib.a(vldecoder_tables.o)
                              ./obj/local/armeabi-v7a/mpeg4_asp_dec_lib.a(vldecoder.o) (g_imp4d_cxa8_RightShift)
./obj/local/armeabi-v7a/mpeg4_asp_dec_lib.a(bitstream_cortexA8_neon.o)
                              ./obj/local/armeabi-v7a/mpeg4_asp_dec_lib.a(decodebvop.o) (imp4d_cxa8_PutRefMBtoPFrame)
./obj/local/armeabi-v7a/mpeg4_asp_dec_lib.a(dequant_cortexA8_neon.o)
                              ./obj/local/armeabi-v7a/mpeg4_asp_dec_lib.a(dequantizer.o) (imp4d_cxa8_dequant0_rows1to8)
./obj/local/armeabi-v7a/mpeg4_asp_dec_lib.a(idct_cortexA8_neon.o)
                              ./obj/local/armeabi-v7a/mpeg4_asp_dec_lib.a(idct.o) (imp4d_cxa8_idct_full)
./obj/local/armeabi-v7a/mpeg4_asp_dec_lib.a(inv_acdc_pred_cortexA8.o)
                              ./obj/local/armeabi-v7a/mpeg4_asp_dec_lib.a(blockdecode.o) (imp4d_cxa8_DoAcDcPred)
./obj/local/armeabi-v7a/mpeg4_asp_dec_lib.a(mc_AddBufferToBlkMatrix_funcs_cortexA8_neon.o)
                              ./obj/local/armeabi-v7a/mpeg4_asp_dec_lib.a(motioncompensate.o) (imp4d_cxa8_AddBufferToBlkMatrix)
./obj/local/armeabi-v7a/mpeg4_asp_dec_lib.a(mc_interpolate_buf_cortexA8_neon.o)
                              ./obj/local/armeabi-v7a/mpeg4_asp_dec_lib.a(interlace.o) (imp4d_cxa8_InterpolateHalf_xFull_y_I)
./obj/local/armeabi-v7a/mpeg4_asp_dec_lib.a(vldecoder_tables_s2.o)
                              ./obj/local/armeabi-v7a/mpeg4_asp_dec_lib.a(blockdecode.o) (g_imp4d_cxa8_dct_dc_size)
./obj/local/armeabi-v7a/sys_utils.a(it_mem.o)
                              ./obj/local/armeabi-v7a/libpc_ardrone.a(video_stage_ittiam_decoder.o) (it_mem_init)
/home/n-brulez/dev/sdk/android-ndk-r7/toolchains/arm-linux-androideabi-4.4.3/prebuilt/linux-x86/bin/../lib/gcc/arm-linux-androideabi/4.4.3/libgcc.a(_udivsi3.o)
                              ./obj/local/armeabi-v7a/libpc_ardrone.a(ardrone_video_atoms.o) (__aeabi_uidiv)
/home/n-brulez/dev/sdk/android-ndk-r7/toolchains/arm-linux-androideabi-4.4.3/prebuilt/linux-x86/bin/../lib/gcc/arm-linux-androideabi/4.4.3/libgcc.a(_divsi3.o)
                              ./obj/local/armeabi-v7a/libvlib.a(video_quantizer.o) (__aeabi_idiv)
/home/n-brulez/dev/sdk/android-ndk-r7/toolchains/arm-linux-androideabi-4.4.3/prebuilt/linux-x86/bin/../lib/gcc/arm-linux-androideabi/4.4.3/libgcc.a(_arm_addsubdf3.o)
                              ./obj/local/armeabi-v7a/libpc_ardrone.a(video_com_stage.o) (__aeabi_dadd)
/home/n-brulez/dev/sdk/android-ndk-r7/toolchains/arm-linux-androideabi-4.4.3/prebuilt/linux-x86/bin/../lib/gcc/arm-linux-androideabi/4.4.3/libgcc.a(_arm_muldivdf3.o)
                              ./obj/local/armeabi-v7a/libpc_ardrone.a(ardrone_ftp.o) (__aeabi_dmul)
/home/n-brulez/dev/sdk/android-ndk-r7/toolchains/arm-linux-androideabi-4.4.3/prebuilt/linux-x86/bin/../lib/gcc/arm-linux-androideabi/4.4.3/libgcc.a(_arm_cmpdf2.o)
                              ./obj/local/armeabi-v7a/libpc_ardrone.a(ardrone_tool_configuration.o) (__aeabi_dcmpeq)
/home/n-brulez/dev/sdk/android-ndk-r7/toolchains/arm-linux-androideabi-4.4.3/prebuilt/linux-x86/bin/../lib/gcc/arm-linux-androideabi/4.4.3/libgcc.a(_arm_fixdfsi.o)
                              ./obj/local/armeabi-v7a/libpc_ardrone.a(iniparser.o) (__aeabi_d2iz)
/home/n-brulez/dev/sdk/android-ndk-r7/toolchains/arm-linux-androideabi-4.4.3/prebuilt/linux-x86/bin/../lib/gcc/arm-linux-androideabi/4.4.3/libgcc.a(_arm_truncdfsf2.o)
                              ./obj/local/armeabi-v7a/libpc_ardrone.a(ardrone_ftp.o) (__aeabi_d2f)
/home/n-brulez/dev/sdk/android-ndk-r7/toolchains/arm-linux-androideabi-4.4.3/prebuilt/linux-x86/bin/../lib/gcc/arm-linux-androideabi/4.4.3/libgcc.a(_arm_addsubsf3.o)
                              ./obj/local/armeabi-v7a/libpc_ardrone.a(video_stage_latency_estimation.o) (__aeabi_fadd)
/home/n-brulez/dev/sdk/android-ndk-r7/toolchains/arm-linux-androideabi-4.4.3/prebuilt/linux-x86/bin/../lib/gcc/arm-linux-androideabi/4.4.3/libgcc.a(_arm_muldivsf3.o)
                              ./obj/local/armeabi-v7a/libvlib.a(p264_codec.o) (__aeabi_fmul)
/home/n-brulez/dev/sdk/android-ndk-r7/toolchains/arm-linux-androideabi-4.4.3/prebuilt/linux-x86/bin/../lib/gcc/arm-linux-androideabi/4.4.3/libgcc.a(_arm_cmpsf2.o)
                              ./obj/local/armeabi-v7a/libpc_ardrone.a(ardrone_tool_configuration.o) (__aeabi_fcmpeq)
/home/n-brulez/dev/sdk/android-ndk-r7/toolchains/arm-linux-androideabi-4.4.3/prebuilt/linux-x86/bin/../lib/gcc/arm-linux-androideabi/4.4.3/libgcc.a(_arm_fixunssfsi.o)
                              ./obj/local/armeabi-v7a/libvlib.a(p264_codec.o) (__aeabi_f2uiz)
/home/n-brulez/dev/sdk/android-ndk-r7/toolchains/arm-linux-androideabi-4.4.3/prebuilt/linux-x86/bin/../lib/gcc/arm-linux-androideabi/4.4.3/libgcc.a(_aeabi_ldivmod.o)
                              ./obj/local/armeabi-v7a/mpeg4_asp_dec_lib.a(basebitstream.o) (__aeabi_ldivmod)
/home/n-brulez/dev/sdk/android-ndk-r7/toolchains/arm-linux-androideabi-4.4.3/prebuilt/linux-x86/bin/../lib/gcc/arm-linux-androideabi/4.4.3/libgcc.a(_aeabi_uldivmod.o)
                              ./obj/local/armeabi-v7a/libpc_ardrone.a(ardrone_time.o) (__aeabi_uldivmod)
/home/n-brulez/dev/sdk/android-ndk-r7/toolchains/arm-linux-androideabi-4.4.3/prebuilt/linux-x86/bin/../lib/gcc/arm-linux-androideabi/4.4.3/libgcc.a(_dvmd_lnx.o)
                              /home/n-brulez/dev/sdk/android-ndk-r7/toolchains/arm-linux-androideabi-4.4.3/prebuilt/linux-x86/bin/../lib/gcc/arm-linux-androideabi/4.4.3/libgcc.a(_udivsi3.o) (__div0)
/home/n-brulez/dev/sdk/android-ndk-r7/toolchains/arm-linux-androideabi-4.4.3/prebuilt/linux-x86/bin/../lib/gcc/arm-linux-androideabi/4.4.3/libgcc.a(bpabi.o)
                              /home/n-brulez/dev/sdk/android-ndk-r7/toolchains/arm-linux-androideabi-4.4.3/prebuilt/linux-x86/bin/../lib/gcc/arm-linux-androideabi/4.4.3/libgcc.a(_aeabi_uldivmod.o) (__gnu_uldivmod_helper)
/home/n-brulez/dev/sdk/android-ndk-r7/toolchains/arm-linux-androideabi-4.4.3/prebuilt/linux-x86/bin/../lib/gcc/arm-linux-androideabi/4.4.3/libgcc.a(unwind-arm.o)
                              ./obj/local/armeabi-v7a/objs/adfreeflight/app.o (__aeabi_unwind_cpp_pr0)
/home/n-brulez/dev/sdk/android-ndk-r7/toolchains/arm-linux-androideabi-4.4.3/prebuilt/linux-x86/bin/../lib/gcc/arm-linux-androideabi/4.4.3/libgcc.a(libunwind.o)
                              /home/n-brulez/dev/sdk/android-ndk-r7/toolchains/arm-linux-androideabi-4.4.3/prebuilt/linux-x86/bin/../lib/gcc/arm-linux-androideabi/4.4.3/libgcc.a(unwind-arm.o) (restore_core_regs)
/home/n-brulez/dev/sdk/android-ndk-r7/toolchains/arm-linux-androideabi-4.4.3/prebuilt/linux-x86/bin/../lib/gcc/arm-linux-androideabi/4.4.3/libgcc.a(pr-support.o)
                              /home/n-brulez/dev/sdk/android-ndk-r7/toolchains/arm-linux-androideabi-4.4.3/prebuilt/linux-x86/bin/../lib/gcc/arm-linux-androideabi/4.4.3/libgcc.a(unwind-arm.o) (__gnu_unwind_execute)
/home/n-brulez/dev/sdk/android-ndk-r7/toolchains/arm-linux-androideabi-4.4.3/prebuilt/linux-x86/bin/../lib/gcc/arm-linux-androideabi/4.4.3/libgcc.a(_divdi3.o)
                              /home/n-brulez/dev/sdk/android-ndk-r7/toolchains/arm-linux-androideabi-4.4.3/prebuilt/linux-x86/bin/../lib/gcc/arm-linux-androideabi/4.4.3/libgcc.a(bpabi.o) (__divdi3)
/home/n-brulez/dev/sdk/android-ndk-r7/toolchains/arm-linux-androideabi-4.4.3/prebuilt/linux-x86/bin/../lib/gcc/arm-linux-androideabi/4.4.3/libgcc.a(_udivdi3.o)
                              /home/n-brulez/dev/sdk/android-ndk-r7/toolchains/arm-linux-androideabi-4.4.3/prebuilt/linux-x86/bin/../lib/gcc/arm-linux-androideabi/4.4.3/libgcc.a(bpabi.o) (__udivdi3)

Allocating common symbols
Common symbol       size              file

mpeg4_get_display_frame_ip
                    0x10c             ./obj/local/armeabi-v7a/libpc_ardrone.a(video_stage_ittiam_decoder.o)
ardroneVersion      0xc               ./obj/local/armeabi-v7a/libpc_ardrone.a(ardrone_tool.o)
video_pipeline_handle
                    0x2               ./obj/local/armeabi-v7a/libpc_ardrone.a(video_stage.o)
ardrone_academy_stage_recorder_config
                    0x114             ./obj/local/armeabi-v7a/libpc_ardrone.a(academy_stage_recorder.o)
errorState          0x4               ./obj/local/armeabi-v7a/objs/adfreeflight/Stubs/drone_stub.o
texture             0x44              ./obj/local/armeabi-v7a/objs/adfreeflight/Stubs/gl_bg_video_sprite_stub.o
mpeg4_video_decode_op
                    0x20              ./obj/local/armeabi-v7a/libpc_ardrone.a(video_stage_ittiam_decoder.o)
ardrone_application_default_config
                    0x1004            ./obj/local/armeabi-v7a/libpc_ardrone.a(ardrone_tool_configuration.o)
ardrone_control_config_default
                    0x1004            ./obj/local/armeabi-v7a/libpc_ardrone.a(ardrone_tool_configuration.o)
oldsize             0x8               ./obj/local/armeabi-v7a/objs/adfreeflight/Video/video_stage_renderer.o
hdvideo_maximum_kilobytes
                    0x4               ./obj/local/armeabi-v7a/libpc_ardrone.a(video_navdata_handler.o)
magnetoEnabled      0x4               ./obj/local/armeabi-v7a/objs/adfreeflight/Stubs/drone_stub.o
mpeg4_get_display_frame_op
                    0x58              ./obj/local/armeabi-v7a/libpc_ardrone.a(video_stage_ittiam_decoder.o)
stack_ATcodec_Commands_Client
                    0x9c40            ./obj/local/armeabi-v7a/libsdk.a(ATcodec_api.o)
filename            0x4               ./obj/local/armeabi-v7a/objs/adfreeflight/Stubs/transcoding_service_stub.o
instance_navdata_mutex
                    0x4               ./obj/local/armeabi-v7a/objs/adfreeflight/NavData/nav_data.o
mpeg4_ps_it_mem     0x4               ./obj/local/armeabi-v7a/libpc_ardrone.a(video_stage_ittiam_decoder.o)
fmt                 0x4               ./obj/local/armeabi-v7a/objs/adfreeflight/Stubs/transcoding_service_stub.o
vec                 0x2c              ./obj/local/armeabi-v7a/libpc_ardrone.a(video_stage.o)
hdvideo_remaining_kilobytes
                    0x4               ./obj/local/armeabi-v7a/libpc_ardrone.a(video_navdata_handler.o)
navdata_unpacked    0x774             ./obj/local/armeabi-v7a/libpc_ardrone.a(ardrone_navdata_client.o)
available_configurations
                    0x20              ./obj/local/armeabi-v7a/libpc_ardrone.a(config_keys.o)
ardrone_control_config
                    0x1004            ./obj/local/armeabi-v7a/libpc_ardrone.a(ardrone_tool_configuration.o)
video_pts           0x8               ./obj/local/armeabi-v7a/objs/adfreeflight/Stubs/transcoding_service_stub.o
h264_get_display_frame_ip
                    0x10c             ./obj/local/armeabi-v7a/libpc_ardrone.a(video_stage_ittiam_decoder.o)
drone_address       0x10              ./obj/local/armeabi-v7a/objs/adfreeflight/app.o
hdvideo_fifo_fill_percentage
                    0x4               ./obj/local/armeabi-v7a/libpc_ardrone.a(video_navdata_handler.o)
tmp_picture         0x4               ./obj/local/armeabi-v7a/objs/adfreeflight/Stubs/transcoding_service_stub.o
mpeg4_video_decode_ip
                    0x14              ./obj/local/armeabi-v7a/libpc_ardrone.a(video_stage_ittiam_decoder.o)
oc                  0x4               ./obj/local/armeabi-v7a/objs/adfreeflight/Stubs/transcoding_service_stub.o
record_icc          0x88              ./obj/local/armeabi-v7a/libpc_ardrone.a(video_recorder_pipeline.o)
h264_video_decode_op
                    0x20              ./obj/local/armeabi-v7a/libpc_ardrone.a(video_stage_ittiam_decoder.o)
stack_ATcodec_Commands_Server
                    0x9c40            ./obj/local/armeabi-v7a/libsdk.a(ATcodec_api.o)
video_st            0x4               ./obj/local/armeabi-v7a/objs/adfreeflight/Stubs/transcoding_service_stub.o
previous_frame      0x10              ./obj/local/armeabi-v7a/objs/adfreeflight/Stubs/transcoding_service_stub.o
ctrldata            0x50              ./obj/local/armeabi-v7a/objs/adfreeflight/ControlData.o
ctrlnavdata         0x774             ./obj/local/armeabi-v7a/objs/adfreeflight/Stubs/drone_stub.o
inst_nav            0x774             ./obj/local/armeabi-v7a/objs/adfreeflight/NavData/nav_data.o
h264_ps_it_mem      0x4               ./obj/local/armeabi-v7a/libpc_ardrone.a(video_stage_ittiam_decoder.o)
crc_table           0x400             ./obj/local/armeabi-v7a/libpc_ardrone.a(ardrone_crc_32.o)
h264_get_display_frame_op
                    0x58              ./obj/local/armeabi-v7a/libpc_ardrone.a(video_stage_ittiam_decoder.o)
mpeg4_mem_rec       0x4               ./obj/local/armeabi-v7a/libpc_ardrone.a(video_stage_ittiam_decoder.o)
icc                 0x18              ./obj/local/armeabi-v7a/libpc_ardrone.a(video_stage.o)
picture             0x4               ./obj/local/armeabi-v7a/objs/adfreeflight/Stubs/transcoding_service_stub.o
hdvideo_retrieving_progress
                    0x4               ./obj/local/armeabi-v7a/libpc_ardrone.a(video_navdata_handler.o)
hdvideo_remaining_frames
                    0x4               ./obj/local/armeabi-v7a/libpc_ardrone.a(video_navdata_handler.o)
h264_video_decode_ip
                    0x14              ./obj/local/armeabi-v7a/libpc_ardrone.a(video_stage_ittiam_decoder.o)
ids                 0x64              ./obj/local/armeabi-v7a/libpc_ardrone.a(ardrone_at_mutex.o)
video_stage_encoded_recorder_config
                    0x41c             ./obj/local/armeabi-v7a/libpc_ardrone.a(video_stage_encoded_recorder.o)
navdata_buffer      0x800             ./obj/local/armeabi-v7a/libpc_ardrone.a(ardrone_navdata_client.o)
stack_vp_com_server
                    0x2000            ./obj/local/armeabi-v7a/libsdk.a(vp_com_socket.o)
scaling             0x4               ./obj/local/armeabi-v7a/objs/adfreeflight/Stubs/gl_bg_video_sprite_stub.o
ovsc                0x44              ./obj/local/armeabi-v7a/objs/adfreeflight/app.o
h264_mem_rec        0x4               ./obj/local/armeabi-v7a/libpc_ardrone.a(video_stage_ittiam_decoder.o)
vlat                0x14              ./obj/local/armeabi-v7a/objs/adfreeflight/app.o
vp_com_pin_code     0x20              ./obj/local/armeabi-v7a/libsdk.a(vp_com.o)

Discarded input sections

 .note.GNU-stack
                0x00000000        0x0 ./obj/local/armeabi-v7a/objs/adfreeflight/app.o
 .note.GNU-stack
                0x00000000        0x0 ./obj/local/armeabi-v7a/objs/adfreeflight/video_stage_io_file.o
 .note.GNU-stack
                0x00000000        0x0 ./obj/local/armeabi-v7a/objs/adfreeflight/hardware_capabilites.o
 .note.GNU-stack
                0x00000000        0x0 ./obj/local/armeabi-v7a/objs/adfreeflight/Controller/ardrone_controller.o
 .note.GNU-stack
                0x00000000        0x0 ./obj/local/armeabi-v7a/objs/adfreeflight/ControlData.o
 .note.GNU-stack
                0x00000000        0x0 ./obj/local/armeabi-v7a/objs/adfreeflight/Callbacks/drone_proxy_callbacks.o
 .note.GNU-stack
                0x00000000        0x0 ./obj/local/armeabi-v7a/objs/adfreeflight/Callbacks/java_callbacks.o
 .note.GNU-stack
                0x00000000        0x0 ./obj/local/armeabi-v7a/objs/adfreeflight/Plf/plf.o
 .note.GNU-stack
                0x00000000        0x0 ./obj/local/armeabi-v7a/objs/adfreeflight/Stubs/drone_stub.o
 .note.GNU-stack
                0x00000000        0x0 ./obj/local/armeabi-v7a/objs/adfreeflight/Stubs/drone_config_stub.o
 .note.GNU-stack
                0x00000000        0x0 ./obj/local/armeabi-v7a/objs/adfreeflight/Stubs/ftp_client_stub.o
 .note.GNU-stack
                0x00000000        0x0 ./obj/local/armeabi-v7a/objs/adfreeflight/Stubs/plf_file_stub.o
 .note.GNU-stack
                0x00000000        0x0 ./obj/local/armeabi-v7a/objs/adfreeflight/Stubs/transcoding_service_stub.o
 .note.GNU-stack
                0x00000000        0x0 ./obj/local/armeabi-v7a/objs/adfreeflight/Stubs/gl_bg_video_sprite_stub.o
 .note.GNU-stack
                0x00000000        0x0 ./obj/local/armeabi-v7a/objs/adfreeflight/NavData/nav_data.o
 .note.GNU-stack
                0x00000000        0x0 ./obj/local/armeabi-v7a/objs/adfreeflight/Video/video_stage_renderer.o
 .note.GNU-stack
                0x00000000        0x0 ./obj/local/armeabi-v7a/objs/adfreeflight/Video/frame_rate.o
 .note.GNU-stack
                0x00000000        0x0 ./obj/local/armeabi-v7a/objs/adfreeflight/Controller/virtual_gamepad.o
 .note.GNU-stack
                0x00000000        0x0 ./obj/local/armeabi-v7a/objs/adfreeflight/Video/opengl_stage.o
 .note.GNU-stack
                0x00000000        0x0 ./obj/local/armeabi-v7a/objs/adfreeflight/Video/opengl_shader.o
 .note.GNU-stack
                0x00000000        0x0 ./obj/local/armeabi-v7a/objs/adfreeflight/Video/opengl_texture.o
 .note.GNU-stack
                0x00000000        0x0 ./obj/local/armeabi-v7a/libpc_ardrone.a(ardrone_version.o)
 .note.GNU-stack
                0x00000000        0x0 ./obj/local/armeabi-v7a/libpc_ardrone.a(ardrone_ftp.o)
 .note.GNU-stack
                0x00000000        0x0 ./obj/local/armeabi-v7a/libpc_ardrone.a(ardrone_video_atoms.o)
 .note.GNU-stack
                0x00000000        0x0 ./obj/local/armeabi-v7a/libpc_ardrone.a(ardrone_video_encapsuler.o)
 .note.GNU-stack
                0x00000000        0x0 ./obj/local/armeabi-v7a/libpc_ardrone.a(video_stage_encoded_recorder.o)
 .note.GNU-stack
                0x00000000        0x0 ./obj/local/armeabi-v7a/libpc_ardrone.a(video_stage_latency_estimation.o)
 .note.GNU-stack
                0x00000000        0x0 ./obj/local/armeabi-v7a/libpc_ardrone.a(video_recorder_pipeline.o)
 .note.GNU-stack
                0x00000000        0x0 ./obj/local/armeabi-v7a/libpc_ardrone.a(video_stage.o)
 .note.GNU-stack
                0x00000000        0x0 ./obj/local/armeabi-v7a/libpc_ardrone.a(AR_Ftw.o)
 .note.GNU-stack
                0x00000000        0x0 ./obj/local/armeabi-v7a/libpc_ardrone.a(ardrone_at_mutex.o)
 .note.GNU-stack
                0x00000000        0x0 ./obj/local/armeabi-v7a/libpc_ardrone.a(academy.o)
 .note.GNU-stack
                0x00000000        0x0 ./obj/local/armeabi-v7a/libpc_ardrone.a(academy_upload.o)
 .note.GNU-stack
                0x00000000        0x0 ./obj/local/armeabi-v7a/libpc_ardrone.a(academy_stage_recorder.o)
 .note.GNU-stack
                0x00000000        0x0 ./obj/local/armeabi-v7a/libpc_ardrone.a(ardrone_navdata_file.o)
 .note.GNU-stack
                0x00000000        0x0 ./obj/local/armeabi-v7a/libpc_ardrone.a(ardrone_general_navdata.o)
 .note.GNU-stack
                0x00000000        0x0 ./obj/local/armeabi-v7a/libpc_ardrone.a(ardrone_academy_navdata.o)
 .note.GNU-stack
                0x00000000        0x0 ./obj/local/armeabi-v7a/libpc_ardrone.a(ardrone_input.o)
 .note.GNU-stack
                0x00000000        0x0 ./obj/local/armeabi-v7a/libpc_ardrone.a(ardrone_tool_configuration.o)
 .note.GNU-stack
                0x00000000        0x0 ./obj/local/armeabi-v7a/libpc_ardrone.a(ardrone_tool.o)
 .note.GNU-stack
                0x00000000        0x0 ./obj/local/armeabi-v7a/libpc_ardrone.a(config_wifi.o)
 .note.GNU-stack
                0x00000000        0x0 ./obj/local/armeabi-v7a/libpc_ardrone.a(video_com_stage.o)
 .note.GNU-stack
                0x00000000        0x0 ./obj/local/armeabi-v7a/libpc_ardrone.a(video_navdata_handler.o)
 .note.GNU-stack
                0x00000000        0x0 ./obj/local/armeabi-v7a/libpc_ardrone.a(ardrone_control.o)
 .note.GNU-stack
                0x00000000        0x0 ./obj/local/armeabi-v7a/libpc_ardrone.a(ardrone_navdata_control.o)
 .note.GNU-stack
                0x00000000        0x0 ./obj/local/armeabi-v7a/libpc_ardrone.a(ardrone_navdata_client.o)
 .note.GNU-stack
                0x00000000        0x0 ./obj/local/armeabi-v7a/libpc_ardrone.a(iniparser.o)
 .note.GNU-stack
                0x00000000        0x0 ./obj/local/armeabi-v7a/libpc_ardrone.a(dictionary.o)
 .note.GNU-stack
                0x00000000        0x0 ./obj/local/armeabi-v7a/libpc_ardrone.a(navdata.o)
 .note.GNU-stack
                0x00000000        0x0 ./obj/local/armeabi-v7a/libpc_ardrone.a(config_keys.o)
 .note.GNU-stack
                0x00000000        0x0 ./obj/local/armeabi-v7a/libpc_ardrone.a(ardrone_time.o)
 .note.GNU-stack
                0x00000000        0x0 ./obj/local/armeabi-v7a/libpc_ardrone.a(ardrone_date.o)
 .note.GNU-stack
                0x00000000        0x0 ./obj/local/armeabi-v7a/libpc_ardrone.a(ardrone_gen_ids.o)
 .note.GNU-stack
                0x00000000        0x0 ./obj/local/armeabi-v7a/libpc_ardrone.a(video_stage_tcp.o)
 .note.GNU-stack
                0x00000000        0x0 ./obj/local/armeabi-v7a/libpc_ardrone.a(video_stage_merge_slices.o)
 .note.GNU-stack
                0x00000000        0x0 ./obj/local/armeabi-v7a/libpc_ardrone.a(video_stage_decoder.o)
 .note.GNU-stack
                0x00000000        0x0 ./obj/local/armeabi-v7a/libpc_ardrone.a(academy_download.o)
 .note.GNU-stack
                0x00000000        0x0 ./obj/local/armeabi-v7a/libpc_ardrone.a(ardrone_control_configuration.o)
 .note.GNU-stack
                0x00000000        0x0 ./obj/local/armeabi-v7a/libpc_ardrone.a(ardrone_control_ack.o)
 .note.GNU-stack
                0x00000000        0x0 ./obj/local/armeabi-v7a/libpc_ardrone.a(ardrone_crc_32.o)
 .note.GNU-stack
                0x00000000        0x0 ./obj/local/armeabi-v7a/libpc_ardrone.a(video_encapsulation.o)
 .note.GNU-stack
                0x00000000        0x0 ./obj/local/armeabi-v7a/libpc_ardrone.a(video_stage_ffmpeg_decoder.o)
 .note.GNU-stack
                0x00000000        0x0 ./obj/local/armeabi-v7a/libpc_ardrone.a(video_stage_ittiam_decoder.o)
 .note.GNU-stack
                0x00000000        0x0 ./obj/local/armeabi-v7a/libvlib.a(vlib_stage_decode.o)
 .note.GNU-stack
                0x00000000        0x0 ./obj/local/armeabi-v7a/libvlib.a(video_codec.o)
 .note.GNU-stack
                0x00000000        0x0 ./obj/local/armeabi-v7a/libvlib.a(video_controller.o)
 .note.GNU-stack
                0x00000000        0x0 ./obj/local/armeabi-v7a/libvlib.a(video_packetizer.o)
 .note.GNU-stack
                0x00000000        0x0 ./obj/local/armeabi-v7a/libvlib.a(video_quantizer.o)
 .note.GNU-stack
                0x00000000        0x0 ./obj/local/armeabi-v7a/libvlib.a(p263_codec.o)
 .note.GNU-stack
                0x00000000        0x0 ./obj/local/armeabi-v7a/libvlib.a(p263_huffman.o)
 .note.GNU-stack
                0x00000000        0x0 ./obj/local/armeabi-v7a/libvlib.a(p263_mb_layer.o)
 .note.GNU-stack
                0x00000000        0x0 ./obj/local/armeabi-v7a/libvlib.a(p263_gob_layer.o)
 .note.GNU-stack
                0x00000000        0x0 ./obj/local/armeabi-v7a/libvlib.a(p263_picture_layer.o)
 .note.GNU-stack
                0x00000000        0x0 ./obj/local/armeabi-v7a/libvlib.a(p264_codec.o)
 .note.GNU-stack
                0x00000000        0x0 ./obj/local/armeabi-v7a/libvlib.a(p264_gob_layer.o)
 .note.GNU-stack
                0x00000000        0x0 ./obj/local/armeabi-v7a/libvlib.a(p264_mb_layer.o)
 .note.GNU-stack
                0x00000000        0x0 ./obj/local/armeabi-v7a/libvlib.a(p264_picture_layer.o)
 .note.GNU-stack
                0x00000000        0x0 ./obj/local/armeabi-v7a/libvlib.a(video_p264.o)
 .note.GNU-stack
                0x00000000        0x0 ./obj/local/armeabi-v7a/libvlib.a(uvlc_codec.o)
 .note.GNU-stack
                0x00000000        0x0 ./obj/local/armeabi-v7a/libvlib.a(uvlc_gob_layer.o)
 .note.GNU-stack
                0x00000000        0x0 ./obj/local/armeabi-v7a/libvlib.a(uvlc_mb_layer.o)
 .note.GNU-stack
                0x00000000        0x0 ./obj/local/armeabi-v7a/libvlib.a(uvlc_picture_layer.o)
 .note.GNU-stack
                0x00000000        0x0 ./obj/local/armeabi-v7a/libvlib.a(video_utils.o)
 .note.GNU-stack
                0x00000000        0x0 ./obj/local/armeabi-v7a/libvlib.a(video_mem32.o)
 .note.GNU-stack
                0x00000000        0x0 ./obj/local/armeabi-v7a/libvlib.a(video_dct.o)
 .note.GNU-stack
                0x00000000        0x0 ./obj/local/armeabi-v7a/libvlib.a(video_huffman.o)
 .note.GNU-stack
                0x00000000        0x0 ./obj/local/armeabi-v7a/libvlib.a(video_macroblock.o)
 .note.GNU-stack
                0x00000000        0x0 ./obj/local/armeabi-v7a/libvlib.a(video_picture.o)
 .note.GNU-stack
                0x00000000        0x0 ./obj/local/armeabi-v7a/libvlib.a(p264_zigzag.o)
 .note.GNU-stack
                0x00000000        0x0 ./obj/local/armeabi-v7a/libvlib.a(p264_transform.o)
 .note.GNU-stack
                0x00000000        0x0 ./obj/local/armeabi-v7a/libvlib.a(p264_Qp.o)
 .note.GNU-stack
                0x00000000        0x0 ./obj/local/armeabi-v7a/libvlib.a(p264_intra_pred.o)
 .note.GNU-stack
                0x00000000        0x0 ./obj/local/armeabi-v7a/libvlib.a(p264_inter_mc.o)
 .note.GNU-stack
                0x00000000        0x0 ./obj/local/armeabi-v7a/libvlib.a(p264_merge.o)
 .note.GNU-stack
                0x00000000        0x0 ./obj/local/armeabi-v7a/libvlib.a(p264.o)
 .note.GNU-stack
                0x00000000        0x0 ./obj/local/armeabi-v7a/libvlib.a(uvlc.o)
 .note.GNU-stack
                0x00000000        0x0 ./obj/local/armeabi-v7a/libsdk.a(vp_os_malloc.o)
 .note.GNU-stack
                0x00000000        0x0 ./obj/local/armeabi-v7a/libsdk.a(vp_api.o)
 .note.GNU-stack
                0x00000000        0x0 ./obj/local/armeabi-v7a/libsdk.a(vp_api_supervisor.o)
 .note.GNU-stack
                0x00000000        0x0 ./obj/local/armeabi-v7a/libsdk.a(vp_api_thread_helper.o)
 .note.GNU-stack
                0x00000000        0x0 ./obj/local/armeabi-v7a/libsdk.a(ATcodec_api.o)
 .note.GNU-stack
                0x00000000        0x0 ./obj/local/armeabi-v7a/libsdk.a(vp_com.o)
 .note.GNU-stack
                0x00000000        0x0 ./obj/local/armeabi-v7a/libsdk.a(vp_com_error.o)
 .note.GNU-stack
                0x00000000        0x0 ./obj/local/armeabi-v7a/libsdk.a(vp_os_signal.o)
 .note.GNU-stack
                0x00000000        0x0 ./obj/local/armeabi-v7a/libsdk.a(vp_os_delay.o)
 .note.GNU-stack
                0x00000000        0x0 ./obj/local/armeabi-v7a/libsdk.a(vp_os_thread.o)
 .note.GNU-stack
                0x00000000        0x0 ./obj/local/armeabi-v7a/libsdk.a(vp_com_wifi.o)
 .note.GNU-stack
                0x00000000        0x0 ./obj/local/armeabi-v7a/libsdk.a(vp_com_socket.o)
 .note.GNU-stack
                0x00000000        0x0 ./obj/local/armeabi-v7a/libsdk.a(vp_com_socket_utils.o)
 .note.GNU-stack
                0x00000000        0x0 ./obj/local/armeabi-v7a/libsdk.a(vp_com_config_itf.o)
 .note.GNU-stack
                0x00000000        0x0 ./obj/local/armeabi-v7a/libsdk.a(vp_os_error_handling.o)
 .note.GNU-stack
                0x00000000        0x0 ./obj/local/armeabi-v7a/libsdk.a(ATcodec_Memory.o)
 .note.GNU-stack
                0x00000000        0x0 ./obj/local/armeabi-v7a/libsdk.a(ATcodec_Buffer.o)
 .note.GNU-stack
                0x00000000        0x0 ./obj/local/armeabi-v7a/libsdk.a(ATcodec.o)
 .note.GNU-stack
                0x00000000        0x0 ./obj/local/armeabi-v7a/libsdk.a(ATcodec_Tree.o)
 __ARM_cc..debug_abbrev.group.2_Al0000_lzmnOQc_au0_000000
                0x00000000        0x8 ./obj/local/armeabi-v7a/h264_dec_lib.a(cncl.rel.rvds.o)
 __ARM_cc.string.h.2_Iu0000_tIYdhWa8sH2_300000
                0x00000000       0x10 ./obj/local/armeabi-v7a/h264_dec_lib.a(cncl.rel.rvds.o)
 __ARM_cc.stdio.h.2_5G1000_6njTvmm0a3d_700000
                0x00000000       0x14 ./obj/local/armeabi-v7a/h264_dec_lib.a(cncl.rel.rvds.o)
 __ARM_cc.ittiam_datatypes.h.2_sK0000_RLL251MOQ13_300000
                0x00000000       0x10 ./obj/local/armeabi-v7a/h264_dec_lib.a(cncl.rel.rvds.o)
 __ARM_cc.iv.h.2_kk1000_UP$$Hx0CWS5_y00000
                0x00000000       0x10 ./obj/local/armeabi-v7a/h264_dec_lib.a(cncl.rel.rvds.o)
 __ARM_cc.cncl.h.2_8L1000_btLt80OUCSf_W00000
                0x00000000       0x10 ./obj/local/armeabi-v7a/h264_dec_lib.a(cncl.rel.rvds.o)
 __ARM_cc.cncl_structs.h.2_kv1000_dsJjRVPnyqc_K00000
                0x00000000       0x10 ./obj/local/armeabi-v7a/h264_dec_lib.a(cncl.rel.rvds.o)
 __ARM_cc.cncl_functions.h.2_Yt0000_vFfjZHqELT7_300000
                0x00000000       0x10 ./obj/local/armeabi-v7a/h264_dec_lib.a(cncl.rel.rvds.o)
 __ARM_cc.cncl.c.2_U52000_KDzEor5hTG9_m10000
                0x00000000       0x10 ./obj/local/armeabi-v7a/h264_dec_lib.a(cncl.rel.rvds.o)
 .note.GNU-stack
                0x00000000        0x0 /home/n-brulez/dev/sdk/android-ndk-r7/toolchains/arm-linux-androideabi-4.4.3/prebuilt/linux-x86/bin/../lib/gcc/arm-linux-androideabi/4.4.3/libgcc.a(_udivsi3.o)
 .note.GNU-stack
                0x00000000        0x0 /home/n-brulez/dev/sdk/android-ndk-r7/toolchains/arm-linux-androideabi-4.4.3/prebuilt/linux-x86/bin/../lib/gcc/arm-linux-androideabi/4.4.3/libgcc.a(_divsi3.o)
 .note.GNU-stack
                0x00000000        0x0 /home/n-brulez/dev/sdk/android-ndk-r7/toolchains/arm-linux-androideabi-4.4.3/prebuilt/linux-x86/bin/../lib/gcc/arm-linux-androideabi/4.4.3/libgcc.a(_arm_addsubdf3.o)
 .note.GNU-stack
                0x00000000        0x0 /home/n-brulez/dev/sdk/android-ndk-r7/toolchains/arm-linux-androideabi-4.4.3/prebuilt/linux-x86/bin/../lib/gcc/arm-linux-androideabi/4.4.3/libgcc.a(_arm_muldivdf3.o)
 .note.GNU-stack
                0x00000000        0x0 /home/n-brulez/dev/sdk/android-ndk-r7/toolchains/arm-linux-androideabi-4.4.3/prebuilt/linux-x86/bin/../lib/gcc/arm-linux-androideabi/4.4.3/libgcc.a(_arm_cmpdf2.o)
 .note.GNU-stack
                0x00000000        0x0 /home/n-brulez/dev/sdk/android-ndk-r7/toolchains/arm-linux-androideabi-4.4.3/prebuilt/linux-x86/bin/../lib/gcc/arm-linux-androideabi/4.4.3/libgcc.a(_arm_fixdfsi.o)
 .note.GNU-stack
                0x00000000        0x0 /home/n-brulez/dev/sdk/android-ndk-r7/toolchains/arm-linux-androideabi-4.4.3/prebuilt/linux-x86/bin/../lib/gcc/arm-linux-androideabi/4.4.3/libgcc.a(_arm_truncdfsf2.o)
 .note.GNU-stack
                0x00000000        0x0 /home/n-brulez/dev/sdk/android-ndk-r7/toolchains/arm-linux-androideabi-4.4.3/prebuilt/linux-x86/bin/../lib/gcc/arm-linux-androideabi/4.4.3/libgcc.a(_arm_addsubsf3.o)
 .note.GNU-stack
                0x00000000        0x0 /home/n-brulez/dev/sdk/android-ndk-r7/toolchains/arm-linux-androideabi-4.4.3/prebuilt/linux-x86/bin/../lib/gcc/arm-linux-androideabi/4.4.3/libgcc.a(_arm_muldivsf3.o)
 .note.GNU-stack
                0x00000000        0x0 /home/n-brulez/dev/sdk/android-ndk-r7/toolchains/arm-linux-androideabi-4.4.3/prebuilt/linux-x86/bin/../lib/gcc/arm-linux-androideabi/4.4.3/libgcc.a(_arm_cmpsf2.o)
 .note.GNU-stack
                0x00000000        0x0 /home/n-brulez/dev/sdk/android-ndk-r7/toolchains/arm-linux-androideabi-4.4.3/prebuilt/linux-x86/bin/../lib/gcc/arm-linux-androideabi/4.4.3/libgcc.a(_arm_fixunssfsi.o)
 .note.GNU-stack
                0x00000000        0x0 /home/n-brulez/dev/sdk/android-ndk-r7/toolchains/arm-linux-androideabi-4.4.3/prebuilt/linux-x86/bin/../lib/gcc/arm-linux-androideabi/4.4.3/libgcc.a(_aeabi_ldivmod.o)
 .note.GNU-stack
                0x00000000        0x0 /home/n-brulez/dev/sdk/android-ndk-r7/toolchains/arm-linux-androideabi-4.4.3/prebuilt/linux-x86/bin/../lib/gcc/arm-linux-androideabi/4.4.3/libgcc.a(_aeabi_uldivmod.o)
 .note.GNU-stack
                0x00000000        0x0 /home/n-brulez/dev/sdk/android-ndk-r7/toolchains/arm-linux-androideabi-4.4.3/prebuilt/linux-x86/bin/../lib/gcc/arm-linux-androideabi/4.4.3/libgcc.a(_dvmd_lnx.o)
 .note.GNU-stack
                0x00000000        0x0 /home/n-brulez/dev/sdk/android-ndk-r7/toolchains/arm-linux-androideabi-4.4.3/prebuilt/linux-x86/bin/../lib/gcc/arm-linux-androideabi/4.4.3/libgcc.a(bpabi.o)
 .note.GNU-stack
                0x00000000        0x0 /home/n-brulez/dev/sdk/android-ndk-r7/toolchains/arm-linux-androideabi-4.4.3/prebuilt/linux-x86/bin/../lib/gcc/arm-linux-androideabi/4.4.3/libgcc.a(unwind-arm.o)
 .note.GNU-stack
                0x00000000        0x0 /home/n-brulez/dev/sdk/android-ndk-r7/toolchains/arm-linux-androideabi-4.4.3/prebuilt/linux-x86/bin/../lib/gcc/arm-linux-androideabi/4.4.3/libgcc.a(libunwind.o)
 .note.GNU-stack
                0x00000000        0x0 /home/n-brulez/dev/sdk/android-ndk-r7/toolchains/arm-linux-androideabi-4.4.3/prebuilt/linux-x86/bin/../lib/gcc/arm-linux-androideabi/4.4.3/libgcc.a(pr-support.o)
 .note.GNU-stack
                0x00000000        0x0 /home/n-brulez/dev/sdk/android-ndk-r7/toolchains/arm-linux-androideabi-4.4.3/prebuilt/linux-x86/bin/../lib/gcc/arm-linux-androideabi/4.4.3/libgcc.a(_divdi3.o)
 .note.GNU-stack
                0x00000000        0x0 /home/n-brulez/dev/sdk/android-ndk-r7/toolchains/arm-linux-androideabi-4.4.3/prebuilt/linux-x86/bin/../lib/gcc/arm-linux-androideabi/4.4.3/libgcc.a(_udivdi3.o)

Memory Configuration

Name             Origin             Length             Attributes
*default*        0x00000000         0xffffffff

Linker script and memory map

LOAD /home/n-brulez/dev/sdk/android-ndk-r7/platforms/android-14/arch-arm/usr/lib/crtbegin_so.o
LOAD ./obj/local/armeabi-v7a/objs/adfreeflight/app.o
LOAD ./obj/local/armeabi-v7a/objs/adfreeflight/video_stage_io_file.o
LOAD ./obj/local/armeabi-v7a/objs/adfreeflight/hardware_capabilites.o
LOAD ./obj/local/armeabi-v7a/objs/adfreeflight/Controller/ardrone_controller.o
LOAD ./obj/local/armeabi-v7a/objs/adfreeflight/ControlData.o
LOAD ./obj/local/armeabi-v7a/objs/adfreeflight/Callbacks/drone_proxy_callbacks.o
LOAD ./obj/local/armeabi-v7a/objs/adfreeflight/Callbacks/java_callbacks.o
LOAD ./obj/local/armeabi-v7a/objs/adfreeflight/Plf/plf.o
LOAD ./obj/local/armeabi-v7a/objs/adfreeflight/Stubs/drone_stub.o
LOAD ./obj/local/armeabi-v7a/objs/adfreeflight/Stubs/drone_config_stub.o
LOAD ./obj/local/armeabi-v7a/objs/adfreeflight/Stubs/ftp_client_stub.o
LOAD ./obj/local/armeabi-v7a/objs/adfreeflight/Stubs/plf_file_stub.o
LOAD ./obj/local/armeabi-v7a/objs/adfreeflight/Stubs/transcoding_service_stub.o
LOAD ./obj/local/armeabi-v7a/objs/adfreeflight/Stubs/gl_bg_video_sprite_stub.o
LOAD ./obj/local/armeabi-v7a/objs/adfreeflight/NavData/nav_data.o
LOAD ./obj/local/armeabi-v7a/objs/adfreeflight/Video/video_stage_renderer.o
LOAD ./obj/local/armeabi-v7a/objs/adfreeflight/Video/frame_rate.o
LOAD ./obj/local/armeabi-v7a/objs/adfreeflight/Controller/virtual_gamepad.o
LOAD ./obj/local/armeabi-v7a/objs/adfreeflight/Video/opengl_stage.o
LOAD ./obj/local/armeabi-v7a/objs/adfreeflight/Video/opengl_shader.o
LOAD ./obj/local/armeabi-v7a/objs/adfreeflight/Video/opengl_texture.o
LOAD ./obj/local/armeabi-v7a/libpc_ardrone.a
LOAD ./obj/local/armeabi-v7a/libvlib.a
LOAD ./obj/local/armeabi-v7a/libsdk.a
LOAD ./obj/local/armeabi-v7a/h264_dec_lib.a
LOAD ./obj/local/armeabi-v7a/mpeg4_asp_dec_lib.a
LOAD ./obj/local/armeabi-v7a/sys_utils.a
LOAD /home/n-brulez/dev/sdk/android-ndk-r7/toolchains/arm-linux-androideabi-4.4.3/prebuilt/linux-x86/bin/../lib/gcc/arm-linux-androideabi/4.4.3/libgcc.a
LOAD ./obj/local/armeabi-v7a/libavutil.so
LOAD ./obj/local/armeabi-v7a/libavcodec.so
LOAD ./obj/local/armeabi-v7a/libswscale.so
LOAD ./obj/local/armeabi-v7a/libavfilter.so
LOAD ./obj/local/armeabi-v7a/libavformat.so
LOAD ./obj/local/armeabi-v7a/libavdevice.so
LOAD /home/n-brulez/dev/sdk/android-ndk-r7/platforms/android-14/arch-arm/usr/lib/liblog.so
LOAD /home/n-brulez/dev/sdk/android-ndk-r7/platforms/android-14/arch-arm/usr/lib/libGLESv2.so
LOAD /home/n-brulez/dev/sdk/android-ndk-r7/platforms/android-14/arch-arm/usr/lib/libjnigraphics.so
LOAD /home/n-brulez/dev/sdk/android-ndk-r7/platforms/android-14/arch-arm/usr/lib/libstdc++.so
LOAD /home/n-brulez/dev/sdk/android-ndk-r7/platforms/android-14/arch-arm/usr/lib/libm.so
LOAD /home/n-brulez/dev/sdk/android-ndk-r7/platforms/android-14/arch-arm/usr/lib/libc.so
LOAD /home/n-brulez/dev/sdk/android-ndk-r7/toolchains/arm-linux-androideabi-4.4.3/prebuilt/linux-x86/bin/../lib/gcc/arm-linux-androideabi/4.4.3/libgcc.a
LOAD /home/n-brulez/dev/sdk/android-ndk-r7/platforms/android-14/arch-arm/usr/lib/libc.so
LOAD /home/n-brulez/dev/sdk/android-ndk-r7/platforms/android-14/arch-arm/usr/lib/libdl.so
LOAD /home/n-brulez/dev/sdk/android-ndk-r7/toolchains/arm-linux-androideabi-4.4.3/prebuilt/linux-x86/bin/../lib/gcc/arm-linux-androideabi/4.4.3/libgcc.a
LOAD /home/n-brulez/dev/sdk/android-ndk-r7/platforms/android-14/arch-arm/usr/lib/crtend_so.o
                0x000000d4                . = (0x0 + SIZEOF_HEADERS)

.note.gnu.build-id
 *(.note.gnu.build-id)

.hash           0x000000d4     0x2dd8
 *(.hash)
 .hash          0x000000d4     0x2dd8 /home/n-brulez/dev/sdk/android-ndk-r7/platforms/android-14/arch-arm/usr/lib/crtbegin_so.o

.gnu.hash
 *(.gnu.hash)

.dynsym         0x00002eac     0x76d0
 *(.dynsym)
 .dynsym        0x00002eac     0x76d0 /home/n-brulez/dev/sdk/android-ndk-r7/platforms/android-14/arch-arm/usr/lib/crtbegin_so.o

.dynstr         0x0000a57c     0xb521
 *(.dynstr)
 .dynstr        0x0000a57c     0xb521 /home/n-brulez/dev/sdk/android-ndk-r7/platforms/android-14/arch-arm/usr/lib/crtbegin_so.o

.gnu.version    0x00015a9e      0xeda
 *(.gnu.version)
 .gnu.version   0x00015a9e      0xeda /home/n-brulez/dev/sdk/android-ndk-r7/platforms/android-14/arch-arm/usr/lib/crtbegin_so.o

.gnu.version_d  0x00016978        0x0
 *(.gnu.version_d)
 .gnu.version_d
                0x00000000        0x0 /home/n-brulez/dev/sdk/android-ndk-r7/platforms/android-14/arch-arm/usr/lib/crtbegin_so.o

.gnu.version_r  0x00016978       0x80
 *(.gnu.version_r)
 .gnu.version_r
                0x00016978       0x80 /home/n-brulez/dev/sdk/android-ndk-r7/platforms/android-14/arch-arm/usr/lib/crtbegin_so.o

.rel.dyn        0x000169f8     0x2408
 *(.rel.init)
 *(.rel.text .rel.text.* .rel.gnu.linkonce.t.*)
 .rel.text      0x000169f8     0x1268 /home/n-brulez/dev/sdk/android-ndk-r7/platforms/android-14/arch-arm/usr/lib/crtbegin_so.o
 *(.rel.fini)
 *(.rel.rodata .rel.rodata.* .rel.gnu.linkonce.r.*)
 *(.rel.data.rel.ro* .rel.gnu.linkonce.d.rel.ro.*)
 .rel.data.rel.ro.local
                0x00017c60       0xb0 /home/n-brulez/dev/sdk/android-ndk-r7/platforms/android-14/arch-arm/usr/lib/crtbegin_so.o
 .rel.data.rel.ro
                0x00017d10      0x208 /home/n-brulez/dev/sdk/android-ndk-r7/platforms/android-14/arch-arm/usr/lib/crtbegin_so.o
 *(.rel.data .rel.data.* .rel.gnu.linkonce.d.*)
 .rel.data.rel  0x00017f18       0xc8 /home/n-brulez/dev/sdk/android-ndk-r7/platforms/android-14/arch-arm/usr/lib/crtbegin_so.o
 .rel.data.rel.local
                0x00017fe0       0xa8 /home/n-brulez/dev/sdk/android-ndk-r7/platforms/android-14/arch-arm/usr/lib/crtbegin_so.o
 .rel.data      0x00018088      0x218 /home/n-brulez/dev/sdk/android-ndk-r7/platforms/android-14/arch-arm/usr/lib/crtbegin_so.o
 *(.rel.tdata .rel.tdata.* .rel.gnu.linkonce.td.*)
 *(.rel.tbss .rel.tbss.* .rel.gnu.linkonce.tb.*)
 *(.rel.ctors)
 *(.rel.dtors)
 *(.rel.got)
 .rel.got       0x000182a0      0x8f8 /home/n-brulez/dev/sdk/android-ndk-r7/platforms/android-14/arch-arm/usr/lib/crtbegin_so.o
 *(.rel.bss .rel.bss.* .rel.gnu.linkonce.b.*)
 *(.rel.iplt)
 .rel.fini_array
                0x00018b98        0x8 /home/n-brulez/dev/sdk/android-ndk-r7/platforms/android-14/arch-arm/usr/lib/crtbegin_so.o
 .relx          0x00018ba0      0x1e8 /home/n-brulez/dev/sdk/android-ndk-r7/platforms/android-14/arch-arm/usr/lib/crtbegin_so.o
 .rel.constdata
                0x00018d88       0x50 /home/n-brulez/dev/sdk/android-ndk-r7/platforms/android-14/arch-arm/usr/lib/crtbegin_so.o
 .relidct_cortexA8_neon
                0x00018dd8       0x10 /home/n-brulez/dev/sdk/android-ndk-r7/platforms/android-14/arch-arm/usr/lib/crtbegin_so.o
 .relAcDcPred   0x00018de8       0x18 /home/n-brulez/dev/sdk/android-ndk-r7/platforms/android-14/arch-arm/usr/lib/crtbegin_so.o

.rela.dyn
 *(.rela.init)
 *(.rela.text .rela.text.* .rela.gnu.linkonce.t.*)
 *(.rela.fini)
 *(.rela.rodata .rela.rodata.* .rela.gnu.linkonce.r.*)
 *(.rela.data .rela.data.* .rela.gnu.linkonce.d.*)
 *(.rela.tdata .rela.tdata.* .rela.gnu.linkonce.td.*)
 *(.rela.tbss .rela.tbss.* .rela.gnu.linkonce.tb.*)
 *(.rela.ctors)
 *(.rela.dtors)
 *(.rela.got)
 *(.rela.bss .rela.bss.* .rela.gnu.linkonce.b.*)
 *(.rela.iplt)

.rel.plt        0x00018e00      0x578
 *(.rel.plt)
 .rel.plt       0x00018e00      0x578 /home/n-brulez/dev/sdk/android-ndk-r7/platforms/android-14/arch-arm/usr/lib/crtbegin_so.o

.rela.plt
 *(.rela.plt)

.init
 *(.init)

.plt            0x00019378      0x848
 *(.plt)
 .plt           0x00019378      0x848 /home/n-brulez/dev/sdk/android-ndk-r7/platforms/android-14/arch-arm/usr/lib/crtbegin_so.o

.iplt
 *(.iplt)

.text           0x00019bc0    0x6f570
 *(.text.unlikely .text.*_unlikely)
 *(.text .stub .text.* .gnu.linkonce.t.*)
 .text          0x00019bc0       0x10 /home/n-brulez/dev/sdk/android-ndk-r7/platforms/android-14/arch-arm/usr/lib/crtbegin_so.o
 .text          0x00019bd0        0x0 ./obj/local/armeabi-v7a/objs/adfreeflight/app.o
 .text.custom_update_user_input
                0x00019bd0        0x4 ./obj/local/armeabi-v7a/objs/adfreeflight/app.o
                0x00019bd0                custom_update_user_input
 .text.custom_reset_user_input
                0x00019bd4        0x4 ./obj/local/armeabi-v7a/objs/adfreeflight/app.o
                0x00019bd4                custom_reset_user_input
 .text.ardrone_tool_exit
                0x00019bd8       0x14 ./obj/local/armeabi-v7a/objs/adfreeflight/app.o
                0x00019bd8                ardrone_tool_exit
 .text.ardrone_tool_display_custom
                0x00019bec        0x4 ./obj/local/armeabi-v7a/objs/adfreeflight/app.o
                0x00019bec                ardrone_tool_display_custom
 .text.parrot_ardrone_notify_resume
                0x00019bf0       0x38 ./obj/local/armeabi-v7a/objs/adfreeflight/app.o
                0x00019bf0                parrot_ardrone_notify_resume
 .text.JNI_OnUnload
                0x00019c28       0x2c ./obj/local/armeabi-v7a/objs/adfreeflight/app.o
                0x00019c28                JNI_OnUnload
 .text.JNI_OnLoad
                0x00019c54       0x34 ./obj/local/armeabi-v7a/objs/adfreeflight/app.o
                0x00019c54                JNI_OnLoad
 .text.parrot_ardrone_notify_pause
                0x00019c88       0x38 ./obj/local/armeabi-v7a/objs/adfreeflight/app.o
                0x00019c88                parrot_ardrone_notify_pause
 .text.parrot_ardrone_notify_exit
                0x00019cc0       0x30 ./obj/local/armeabi-v7a/objs/adfreeflight/app.o
                0x00019cc0                parrot_ardrone_notify_exit
 .text.parrot_ardrone_notify_start
                0x00019cf0       0xc8 ./obj/local/armeabi-v7a/objs/adfreeflight/app.o
                0x00019cf0                parrot_ardrone_notify_start
 .text.thread_app_main
                0x00019db8      0x664 ./obj/local/armeabi-v7a/objs/adfreeflight/app.o
                0x00019db8                thread_app_main
 .text          0x0001a41c        0x0 ./obj/local/armeabi-v7a/objs/adfreeflight/video_stage_io_file.o
 .text.video_stage_io_file_stage_close
                0x0001a41c       0x28 ./obj/local/armeabi-v7a/objs/adfreeflight/video_stage_io_file.o
                0x0001a41c                video_stage_io_file_stage_close
 .text.video_stage_io_file_stage_transform
                0x0001a444       0xbc ./obj/local/armeabi-v7a/objs/adfreeflight/video_stage_io_file.o
                0x0001a444                video_stage_io_file_stage_transform
 .text.video_stage_io_file_stage_open
                0x0001a500       0x3c ./obj/local/armeabi-v7a/objs/adfreeflight/video_stage_io_file.o
                0x0001a500                video_stage_io_file_stage_open
 .text          0x0001a53c        0x0 ./obj/local/armeabi-v7a/objs/adfreeflight/hardware_capabilites.o
 .text.setEnvironmentInfo
                0x0001a53c       0x1c ./obj/local/armeabi-v7a/objs/adfreeflight/hardware_capabilites.o
                0x0001a53c                setEnvironmentInfo
 .text._parseDeviceString
                0x0001a558       0xac ./obj/local/armeabi-v7a/objs/adfreeflight/hardware_capabilites.o
                0x0001a558                _parseDeviceString
 .text._getCurrentDevice
                0x0001a604       0x80 ./obj/local/armeabi-v7a/objs/adfreeflight/hardware_capabilites.o
                0x0001a604                _getCurrentDevice
 .text.printDeviceInfos
                0x0001a684       0x3c ./obj/local/armeabi-v7a/objs/adfreeflight/hardware_capabilites.o
                0x0001a684                printDeviceInfos
 .text.getDeviceVideoCapabilites
                0x0001a6c0       0x54 ./obj/local/armeabi-v7a/objs/adfreeflight/hardware_capabilites.o
                0x0001a6c0                getDeviceVideoCapabilites
 .text          0x0001a714        0x0 ./obj/local/armeabi-v7a/objs/adfreeflight/Controller/ardrone_controller.o
 .text.parrot_ardrone_ctrl_has_ctrl_status
                0x0001a714        0x4 ./obj/local/armeabi-v7a/objs/adfreeflight/Controller/ardrone_controller.o
                0x0001a714                parrot_ardrone_ctrl_has_ctrl_status
 .text.parrot_ardrone_ctrl_get_battery_level
                0x0001a718        0x4 ./obj/local/armeabi-v7a/objs/adfreeflight/Controller/ardrone_controller.o
                0x0001a718                parrot_ardrone_ctrl_get_battery_level
 .text.parrot_ardrone_ctrl_get_altitude
                0x0001a71c        0x4 ./obj/local/armeabi-v7a/objs/adfreeflight/Controller/ardrone_controller.o
                0x0001a71c                parrot_ardrone_ctrl_get_altitude
 .text.parrot_ardrone_ctrl_get_yaw_max_angle
                0x0001a720       0x28 ./obj/local/armeabi-v7a/objs/adfreeflight/Controller/ardrone_controller.o
                0x0001a720                parrot_ardrone_ctrl_get_yaw_max_angle
 .text.parrot_ardrone_ctrl_get_tilt_max_angle
                0x0001a748       0x28 ./obj/local/armeabi-v7a/objs/adfreeflight/Controller/ardrone_controller.o
                0x0001a748                parrot_ardrone_ctrl_get_tilt_max_angle
 .text.parrot_ardrone_ctrl_get_vert_speed_max
                0x0001a770       0x28 ./obj/local/armeabi-v7a/objs/adfreeflight/Controller/ardrone_controller.o
                0x0001a770                parrot_ardrone_ctrl_get_vert_speed_max
 .text.parrot_ardrone_ctrl_is_outdoor_mode
                0x0001a798       0x28 ./obj/local/armeabi-v7a/objs/adfreeflight/Controller/ardrone_controller.o
                0x0001a798                parrot_ardrone_ctrl_is_outdoor_mode
 .text.parrot_ardrone_ctrl_set_outdoor_mode
                0x0001a7c0       0x18 ./obj/local/armeabi-v7a/objs/adfreeflight/Controller/ardrone_controller.o
                0x0001a7c0                parrot_ardrone_ctrl_set_outdoor_mode
 .text.parrot_ardrone_ctrl_set_flat_trim
                0x0001a7d8        0x8 ./obj/local/armeabi-v7a/objs/adfreeflight/Controller/ardrone_controller.o
                0x0001a7d8                parrot_ardrone_ctrl_set_flat_trim
 .text.parrot_ardrone_ctrl_switch_camera
                0x0001a7e0       0x28 ./obj/local/armeabi-v7a/objs/adfreeflight/Controller/ardrone_controller.o
                0x0001a7e0                parrot_ardrone_ctrl_switch_camera
 .text.parrot_ardrone_ctrl_set_vert_speed_max
                0x0001a808       0x18 ./obj/local/armeabi-v7a/objs/adfreeflight/Controller/ardrone_controller.o
                0x0001a808                parrot_ardrone_ctrl_set_vert_speed_max
 .text.parrot_ardrone_ctrl_set_tilt_max_angle
                0x0001a820       0x18 ./obj/local/armeabi-v7a/objs/adfreeflight/Controller/ardrone_controller.o
                0x0001a820                parrot_ardrone_ctrl_set_tilt_max_angle
 .text.parrot_ardrone_ctrl_set_yaw_max_angle
                0x0001a838       0x18 ./obj/local/armeabi-v7a/objs/adfreeflight/Controller/ardrone_controller.o
                0x0001a838                parrot_ardrone_ctrl_set_yaw_max_angle
 .text.parrot_ardrone_ctrl_set_pitch
                0x0001a850        0x8 ./obj/local/armeabi-v7a/objs/adfreeflight/Controller/ardrone_controller.o
                0x0001a850                parrot_ardrone_ctrl_set_pitch
 .text.parrot_ardrone_ctrl_set_roll
                0x0001a858        0x8 ./obj/local/armeabi-v7a/objs/adfreeflight/Controller/ardrone_controller.o
                0x0001a858                parrot_ardrone_ctrl_set_roll
 .text.parrot_ardrone_ctrl_set_gaz
                0x0001a860        0x8 ./obj/local/armeabi-v7a/objs/adfreeflight/Controller/ardrone_controller.o
                0x0001a860                parrot_ardrone_ctrl_set_gaz
 .text.parrot_ardrone_ctrl_set_yaw
                0x0001a868        0x8 ./obj/local/armeabi-v7a/objs/adfreeflight/Controller/ardrone_controller.o
                0x0001a868                parrot_ardrone_ctrl_set_yaw
 .text.parrot_ardrone_ctrl_set_command_flag
                0x0001a870        0x8 ./obj/local/armeabi-v7a/objs/adfreeflight/Controller/ardrone_controller.o
                0x0001a870                parrot_ardrone_ctrl_set_command_flag
 .text.parrot_ardrone_ctrl_emergency
                0x0001a878        0x8 ./obj/local/armeabi-v7a/objs/adfreeflight/Controller/ardrone_controller.o
                0x0001a878                parrot_ardrone_ctrl_emergency
 .text.parrot_ardrone_ctrl_take_off
                0x0001a880        0x8 ./obj/local/armeabi-v7a/objs/adfreeflight/Controller/ardrone_controller.o
                0x0001a880                parrot_ardrone_ctrl_take_off
 .text          0x0001a888        0x0 ./obj/local/armeabi-v7a/objs/adfreeflight/ControlData.o
 .text.inputYaw
                0x0001a888       0x5c ./obj/local/armeabi-v7a/objs/adfreeflight/ControlData.o
                0x0001a888                inputYaw
 .text.inputGaz
                0x0001a8e4       0x5c ./obj/local/armeabi-v7a/objs/adfreeflight/ControlData.o
                0x0001a8e4                inputGaz
 .text.inputPitch
                0x0001a940       0x5c ./obj/local/armeabi-v7a/objs/adfreeflight/ControlData.o
                0x0001a940                inputPitch
 .text.inputRoll
                0x0001a99c       0x5c ./obj/local/armeabi-v7a/objs/adfreeflight/ControlData.o
                0x0001a99c                inputRoll
 .text.resetControlData
                0x0001a9f8       0x30 ./obj/local/armeabi-v7a/objs/adfreeflight/ControlData.o
                0x0001a9f8                resetControlData
 .text.set_command_flag
                0x0001aa28       0x34 ./obj/local/armeabi-v7a/objs/adfreeflight/ControlData.o
                0x0001aa28                set_command_flag
 .text.sendControls
                0x0001aa5c       0x38 ./obj/local/armeabi-v7a/objs/adfreeflight/ControlData.o
                0x0001aa5c                sendControls
 .text.initControlData
                0x0001aa94       0x50 ./obj/local/armeabi-v7a/objs/adfreeflight/ControlData.o
                0x0001aa94                initControlData
 .text.setApplicationDefaultConfig
                0x0001aae4       0xf8 ./obj/local/armeabi-v7a/objs/adfreeflight/ControlData.o
                0x0001aae4                setApplicationDefaultConfig
 .text          0x0001abdc        0x0 ./obj/local/armeabi-v7a/objs/adfreeflight/Callbacks/drone_proxy_callbacks.o
 .text.parrot_drone_proxy_onConnectionFailed
                0x0001abdc       0xb0 ./obj/local/armeabi-v7a/objs/adfreeflight/Callbacks/drone_proxy_callbacks.o
                0x0001abdc                parrot_drone_proxy_onConnectionFailed
 .text.parrot_drone_proxy_onConfigChanged
                0x0001ac8c       0x2c ./obj/local/armeabi-v7a/objs/adfreeflight/Callbacks/drone_proxy_callbacks.o
                0x0001ac8c                parrot_drone_proxy_onConfigChanged
 .text.parrot_drone_proxy_onDisconnected
                0x0001acb8       0x2c ./obj/local/armeabi-v7a/objs/adfreeflight/Callbacks/drone_proxy_callbacks.o
                0x0001acb8                parrot_drone_proxy_onDisconnected
 .text.parrot_drone_proxy_onConnected
                0x0001ace4       0x2c ./obj/local/armeabi-v7a/objs/adfreeflight/Callbacks/drone_proxy_callbacks.o
                0x0001ace4                parrot_drone_proxy_onConnected
 .text          0x0001ad10        0x0 ./obj/local/armeabi-v7a/objs/adfreeflight/Callbacks/java_callbacks.o
 .text.java_set_field_int
                0x0001ad10       0x48 ./obj/local/armeabi-v7a/objs/adfreeflight/Callbacks/java_callbacks.o
                0x0001ad10                java_set_field_int
 .text.java_set_field_bool
                0x0001ad58       0x48 ./obj/local/armeabi-v7a/objs/adfreeflight/Callbacks/java_callbacks.o
                0x0001ad58                java_set_field_bool
 .text.java_get_bool_field_value
                0x0001ada0       0x48 ./obj/local/armeabi-v7a/objs/adfreeflight/Callbacks/java_callbacks.o
                0x0001ada0                java_get_bool_field_value
 .text.parrot_java_callbacks_call_void_method_string
                0x0001ade8       0xa4 ./obj/local/armeabi-v7a/objs/adfreeflight/Callbacks/java_callbacks.o
                0x0001ade8                parrot_java_callbacks_call_void_method_string
 .text.parrot_java_callbacks_call_void_method_int_int
                0x0001ae8c       0xc8 ./obj/local/armeabi-v7a/objs/adfreeflight/Callbacks/java_callbacks.o
                0x0001ae8c                parrot_java_callbacks_call_void_method_int_int
 .text.parrot_java_callbacks_call_void_method
                0x0001af54       0x90 ./obj/local/armeabi-v7a/objs/adfreeflight/Callbacks/java_callbacks.o
                0x0001af54                parrot_java_callbacks_call_void_method
 .text.parrot_java_callbacks_call_void_method2
                0x0001afe4       0x3c ./obj/local/armeabi-v7a/objs/adfreeflight/Callbacks/java_callbacks.o
                0x0001afe4                parrot_java_callbacks_call_void_method2
 .text          0x0001b020        0x0 ./obj/local/armeabi-v7a/objs/adfreeflight/Plf/plf.o
 .text.plf_get_header
                0x0001b020       0x6c ./obj/local/armeabi-v7a/objs/adfreeflight/Plf/plf.o
                0x0001b020                plf_get_header
 .text          0x0001b08c        0x0 ./obj/local/armeabi-v7a/objs/adfreeflight/Stubs/drone_stub.o
 .text.Java_com_parrot_freeflight_drone_DroneProxy_setMagnetoEnabled
                0x0001b08c       0x10 ./obj/local/armeabi-v7a/objs/adfreeflight/Stubs/drone_stub.o
                0x0001b08c                Java_com_parrot_freeflight_drone_DroneProxy_setMagnetoEnabled
 .text.gpsConfigSuccess
                0x0001b09c       0x10 ./obj/local/armeabi-v7a/objs/adfreeflight/Stubs/drone_stub.o
                0x0001b09c                gpsConfigSuccess
 .text.Java_com_parrot_freeflight_drone_DroneProxy_setLocation
                0x0001b0ac       0x44 ./obj/local/armeabi-v7a/objs/adfreeflight/Stubs/drone_stub.o
                0x0001b0ac                Java_com_parrot_freeflight_drone_DroneProxy_setLocation
 .text.Java_com_parrot_freeflight_drone_DroneProxy_triggerConfigUpdateNative
                0x0001b0f0       0x2c ./obj/local/armeabi-v7a/objs/adfreeflight/Stubs/drone_stub.o
                0x0001b0f0                Java_com_parrot_freeflight_drone_DroneProxy_triggerConfigUpdateNative
 .text.getConfigSuccess
                0x0001b11c       0x44 ./obj/local/armeabi-v7a/objs/adfreeflight/Stubs/drone_stub.o
                0x0001b11c                getConfigSuccess
 .text.Java_com_parrot_freeflight_drone_DroneProxy_doFlip
                0x0001b160       0x48 ./obj/local/armeabi-v7a/objs/adfreeflight/Stubs/drone_stub.o
                0x0001b160                Java_com_parrot_freeflight_drone_DroneProxy_doFlip
 .text.Java_com_parrot_freeflight_drone_DroneProxy_calibrateMagneto
                0x0001b1a8        0xc ./obj/local/armeabi-v7a/objs/adfreeflight/Stubs/drone_stub.o
                0x0001b1a8                Java_com_parrot_freeflight_drone_DroneProxy_calibrateMagneto
 .text.Java_com_parrot_freeflight_drone_DroneProxy_record
                0x0001b1b4       0x20 ./obj/local/armeabi-v7a/objs/adfreeflight/Stubs/drone_stub.o
                0x0001b1b4                Java_com_parrot_freeflight_drone_DroneProxy_record
 .text.Java_com_parrot_freeflight_drone_DroneProxy_takePhoto
                0x0001b1d4       0x60 ./obj/local/armeabi-v7a/objs/adfreeflight/Stubs/drone_stub.o
                0x0001b1d4                Java_com_parrot_freeflight_drone_DroneProxy_takePhoto
 .text.Java_com_parrot_freeflight_drone_DroneProxy_flatTrimNative
                0x0001b234        0x8 ./obj/local/armeabi-v7a/objs/adfreeflight/Stubs/drone_stub.o
                0x0001b234                Java_com_parrot_freeflight_drone_DroneProxy_flatTrimNative
 .text.Java_com_parrot_freeflight_drone_DroneProxy_switchCamera
                0x0001b23c        0xc ./obj/local/armeabi-v7a/objs/adfreeflight/Stubs/drone_stub.o
                0x0001b23c                Java_com_parrot_freeflight_drone_DroneProxy_switchCamera
 .text.Java_com_parrot_freeflight_drone_DroneProxy_resetConfigToDefaults
                0x0001b248      0x514 ./obj/local/armeabi-v7a/objs/adfreeflight/Stubs/drone_stub.o
                0x0001b248                Java_com_parrot_freeflight_drone_DroneProxy_resetConfigToDefaults
 .text.Java_com_parrot_freeflight_drone_DroneProxy_takeConfigSnapshot
                0x0001b75c      0x9ac ./obj/local/armeabi-v7a/objs/adfreeflight/Stubs/drone_stub.o
                0x0001b75c                Java_com_parrot_freeflight_drone_DroneProxy_takeConfigSnapshot
 .text.checkErrors
                0x0001c108      0x284 ./obj/local/armeabi-v7a/objs/adfreeflight/Stubs/drone_stub.o
                0x0001c108                checkErrors
 .text.Java_com_parrot_freeflight_drone_DroneProxy_takeNavDataSnapshot
                0x0001c38c      0x274 ./obj/local/armeabi-v7a/objs/adfreeflight/Stubs/drone_stub.o
                0x0001c38c                Java_com_parrot_freeflight_drone_DroneProxy_takeNavDataSnapshot
 .text.Java_com_parrot_freeflight_drone_DroneProxy_setDeviceOrientation
                0x0001c600       0x7c ./obj/local/armeabi-v7a/objs/adfreeflight/Stubs/drone_stub.o
                0x0001c600                Java_com_parrot_freeflight_drone_DroneProxy_setDeviceOrientation
 .text.Java_com_parrot_freeflight_drone_DroneProxy_setCommandFlag
                0x0001c67c        0xc ./obj/local/armeabi-v7a/objs/adfreeflight/Stubs/drone_stub.o
                0x0001c67c                Java_com_parrot_freeflight_drone_DroneProxy_setCommandFlag
 .text.Java_com_parrot_freeflight_drone_DroneProxy_setControlValue
                0x0001c688       0x4c ./obj/local/armeabi-v7a/objs/adfreeflight/Stubs/drone_stub.o
                0x0001c688                Java_com_parrot_freeflight_drone_DroneProxy_setControlValue
 .text.Java_com_parrot_freeflight_drone_DroneProxy_triggerEmergency
                0x0001c6d4       0x20 ./obj/local/armeabi-v7a/objs/adfreeflight/Stubs/drone_stub.o
                0x0001c6d4                Java_com_parrot_freeflight_drone_DroneProxy_triggerEmergency
 .text.Java_com_parrot_freeflight_drone_DroneProxy_triggerTakeOff
                0x0001c6f4       0x20 ./obj/local/armeabi-v7a/objs/adfreeflight/Stubs/drone_stub.o
                0x0001c6f4                Java_com_parrot_freeflight_drone_DroneProxy_triggerTakeOff
 .text.Java_com_parrot_freeflight_drone_DroneProxy_disconnect
                0x0001c714       0x20 ./obj/local/armeabi-v7a/objs/adfreeflight/Stubs/drone_stub.o
                0x0001c714                Java_com_parrot_freeflight_drone_DroneProxy_disconnect
 .text.Java_com_parrot_freeflight_drone_DroneProxy_resume
                0x0001c734       0x20 ./obj/local/armeabi-v7a/objs/adfreeflight/Stubs/drone_stub.o
                0x0001c734                Java_com_parrot_freeflight_drone_DroneProxy_resume
 .text.Java_com_parrot_freeflight_drone_DroneProxy_setDefaultConfigurationNative
                0x0001c754        0x8 ./obj/local/armeabi-v7a/objs/adfreeflight/Stubs/drone_stub.o
                0x0001c754                Java_com_parrot_freeflight_drone_DroneProxy_setDefaultConfigurationNative
 .text.Java_com_parrot_freeflight_drone_DroneProxy_pause
                0x0001c75c       0x20 ./obj/local/armeabi-v7a/objs/adfreeflight/Stubs/drone_stub.o
                0x0001c75c                Java_com_parrot_freeflight_drone_DroneProxy_pause
 .text.Java_com_parrot_freeflight_drone_DroneProxy_connect
                0x0001c77c       0xe4 ./obj/local/armeabi-v7a/objs/adfreeflight/Stubs/drone_stub.o
                0x0001c77c                Java_com_parrot_freeflight_drone_DroneProxy_connect
 .text.Java_com_parrot_freeflight_drone_DroneProxy_initNavdata
                0x0001c860       0x80 ./obj/local/armeabi-v7a/objs/adfreeflight/Stubs/drone_stub.o
                0x0001c860                Java_com_parrot_freeflight_drone_DroneProxy_initNavdata
 .text.ardrone_academy_callback_called
                0x0001c8e0       0x70 ./obj/local/armeabi-v7a/objs/adfreeflight/Stubs/drone_stub.o
                0x0001c8e0                ardrone_academy_callback_called
 .text.ardrone_engine_message_received
                0x0001c950       0xb4 ./obj/local/armeabi-v7a/objs/adfreeflight/Stubs/drone_stub.o
                0x0001c950                ardrone_engine_message_received
 .text          0x0001ca04        0x0 ./obj/local/armeabi-v7a/objs/adfreeflight/Stubs/drone_config_stub.o
 .text.Java_com_parrot_freeflight_drone_DroneConfig_getDroneFamily
                0x0001ca04       0x10 ./obj/local/armeabi-v7a/objs/adfreeflight/Stubs/drone_config_stub.o
                0x0001ca04                Java_com_parrot_freeflight_drone_DroneConfig_getDroneFamily
 .text.Java_com_parrot_freeflight_drone_DroneConfig_getFtpPortNative
                0x0001ca14        0x8 ./obj/local/armeabi-v7a/objs/adfreeflight/Stubs/drone_config_stub.o
                0x0001ca14                Java_com_parrot_freeflight_drone_DroneConfig_getFtpPortNative
 .text.Java_com_parrot_freeflight_drone_DroneConfig_getDroneHostNative
                0x0001ca1c       0x14 ./obj/local/armeabi-v7a/objs/adfreeflight/Stubs/drone_config_stub.o
                0x0001ca1c                Java_com_parrot_freeflight_drone_DroneConfig_getDroneHostNative
 .text.Java_com_parrot_freeflight_drone_DroneConfig_updateRecordOnUsb
                0x0001ca30       0xa0 ./obj/local/armeabi-v7a/objs/adfreeflight/Stubs/drone_config_stub.o
                0x0001ca30                Java_com_parrot_freeflight_drone_DroneConfig_updateRecordOnUsb
 .text.Java_com_parrot_freeflight_drone_DroneConfig_updateVideoCodecNative
                0x0001cad0      0x194 ./obj/local/armeabi-v7a/objs/adfreeflight/Stubs/drone_config_stub.o
                0x0001cad0                Java_com_parrot_freeflight_drone_DroneConfig_updateVideoCodecNative
 .text.Java_com_parrot_freeflight_drone_DroneConfig_updateNetworkNameNative
                0x0001cc64       0x80 ./obj/local/armeabi-v7a/objs/adfreeflight/Stubs/drone_config_stub.o
                0x0001cc64                Java_com_parrot_freeflight_drone_DroneConfig_updateNetworkNameNative
 .text.Java_com_parrot_freeflight_drone_DroneConfig_updateDeviceTiltMax
                0x0001cce4       0x4c ./obj/local/armeabi-v7a/objs/adfreeflight/Stubs/drone_config_stub.o
                0x0001cce4                Java_com_parrot_freeflight_drone_DroneConfig_updateDeviceTiltMax
 .text.Java_com_parrot_freeflight_drone_DroneConfig_updateTiltNative
                0x0001cd30       0x90 ./obj/local/armeabi-v7a/objs/adfreeflight/Stubs/drone_config_stub.o
                0x0001cd30                Java_com_parrot_freeflight_drone_DroneConfig_updateTiltNative
 .text.Java_com_parrot_freeflight_drone_DroneConfig_updateVertSpeedMaxNative
                0x0001cdc0       0x84 ./obj/local/armeabi-v7a/objs/adfreeflight/Stubs/drone_config_stub.o
                0x0001cdc0                Java_com_parrot_freeflight_drone_DroneConfig_updateVertSpeedMaxNative
 .text.Java_com_parrot_freeflight_drone_DroneConfig_updateYawSpeedMaxNative
                0x0001ce44       0x90 ./obj/local/armeabi-v7a/objs/adfreeflight/Stubs/drone_config_stub.o
                0x0001ce44                Java_com_parrot_freeflight_drone_DroneConfig_updateYawSpeedMaxNative
 .text.Java_com_parrot_freeflight_drone_DroneConfig_updateOutdoorFlightNative
                0x0001ced4       0x78 ./obj/local/armeabi-v7a/objs/adfreeflight/Stubs/drone_config_stub.o
                0x0001ced4                Java_com_parrot_freeflight_drone_DroneConfig_updateOutdoorFlightNative
 .text.Java_com_parrot_freeflight_drone_DroneConfig_updateAltitudeLimit
                0x0001cf4c       0x3c ./obj/local/armeabi-v7a/objs/adfreeflight/Stubs/drone_config_stub.o
                0x0001cf4c                Java_com_parrot_freeflight_drone_DroneConfig_updateAltitudeLimit
 .text.Java_com_parrot_freeflight_drone_DroneConfig_updateOwnerMacNative
                0x0001cf88       0x90 ./obj/local/armeabi-v7a/objs/adfreeflight/Stubs/drone_config_stub.o
                0x0001cf88                Java_com_parrot_freeflight_drone_DroneConfig_updateOwnerMacNative
 .text.Java_com_parrot_freeflight_drone_DroneConfig_updateAdaptiveVideoNative
                0x0001d018      0x110 ./obj/local/armeabi-v7a/objs/adfreeflight/Stubs/drone_config_stub.o
                0x0001d018                Java_com_parrot_freeflight_drone_DroneConfig_updateAdaptiveVideoNative
 .text.Java_com_parrot_freeflight_drone_DroneConfig_updateOutdoorHullNative
                0x0001d128       0x78 ./obj/local/armeabi-v7a/objs/adfreeflight/Stubs/drone_config_stub.o
                0x0001d128                Java_com_parrot_freeflight_drone_DroneConfig_updateOutdoorHullNative
 .text          0x0001d1a0        0x0 ./obj/local/armeabi-v7a/objs/adfreeflight/Stubs/ftp_client_stub.o
 .text.get_ftp_handle
                0x0001d1a0       0x4c ./obj/local/armeabi-v7a/objs/adfreeflight/Stubs/ftp_client_stub.o
 .text.update_ftp_status_field
                0x0001d1ec       0x58 ./obj/local/armeabi-v7a/objs/adfreeflight/Stubs/ftp_client_stub.o
 .text.update_conn_handler_field
                0x0001d244       0x58 ./obj/local/armeabi-v7a/objs/adfreeflight/Stubs/ftp_client_stub.o
 .text.Java_com_parrot_ftp_FTPClient_ftpIsConnected
                0x0001d29c       0x14 ./obj/local/armeabi-v7a/objs/adfreeflight/Stubs/ftp_client_stub.o
                0x0001d29c                Java_com_parrot_ftp_FTPClient_ftpIsConnected
 .text.wrapperCallback
                0x0001d2b0      0x110 ./obj/local/armeabi-v7a/objs/adfreeflight/Stubs/ftp_client_stub.o
                0x0001d2b0                wrapperCallback
 .text.ftp_ftpGet
                0x0001d3c0       0xdc ./obj/local/armeabi-v7a/objs/adfreeflight/Stubs/ftp_client_stub.o
 .text.Java_com_parrot_ftp_FTPClient_ftpGetSync
                0x0001d49c       0x1c ./obj/local/armeabi-v7a/objs/adfreeflight/Stubs/ftp_client_stub.o
                0x0001d49c                Java_com_parrot_ftp_FTPClient_ftpGetSync
 .text.Java_com_parrot_ftp_FTPClient_ftpGet
                0x0001d4b8       0x24 ./obj/local/armeabi-v7a/objs/adfreeflight/Stubs/ftp_client_stub.o
                0x0001d4b8                Java_com_parrot_ftp_FTPClient_ftpGet
 .text.ftp_ftpPut
                0x0001d4dc      0x104 ./obj/local/armeabi-v7a/objs/adfreeflight/Stubs/ftp_client_stub.o
 .text.Java_com_parrot_ftp_FTPClient_ftpPutSync
                0x0001d5e0       0x1c ./obj/local/armeabi-v7a/objs/adfreeflight/Stubs/ftp_client_stub.o
                0x0001d5e0                Java_com_parrot_ftp_FTPClient_ftpPutSync
 .text.Java_com_parrot_ftp_FTPClient_ftpPut
                0x0001d5fc       0x24 ./obj/local/armeabi-v7a/objs/adfreeflight/Stubs/ftp_client_stub.o
                0x0001d5fc                Java_com_parrot_ftp_FTPClient_ftpPut
 .text.Java_com_parrot_ftp_FTPClient_ftpAbort
                0x0001d620       0x5c ./obj/local/armeabi-v7a/objs/adfreeflight/Stubs/ftp_client_stub.o
                0x0001d620                Java_com_parrot_ftp_FTPClient_ftpAbort
 .text.Java_com_parrot_ftp_FTPClient_ftpDisconnect
                0x0001d67c       0x60 ./obj/local/armeabi-v7a/objs/adfreeflight/Stubs/ftp_client_stub.o
                0x0001d67c                Java_com_parrot_ftp_FTPClient_ftpDisconnect
 .text.Java_com_parrot_ftp_FTPClient_ftpConnect
                0x0001d6dc       0xc4 ./obj/local/armeabi-v7a/objs/adfreeflight/Stubs/ftp_client_stub.o
                0x0001d6dc                Java_com_parrot_ftp_FTPClient_ftpConnect
 .text          0x0001d7a0        0x0 ./obj/local/armeabi-v7a/objs/adfreeflight/Stubs/plf_file_stub.o
 .text.Java_com_parrot_plf_PlfFile_getVersionNative
                0x0001d7a0      0x134 ./obj/local/armeabi-v7a/objs/adfreeflight/Stubs/plf_file_stub.o
                0x0001d7a0                Java_com_parrot_plf_PlfFile_getVersionNative
 .text          0x0001d8d4        0x0 ./obj/local/armeabi-v7a/objs/adfreeflight/Stubs/transcoding_service_stub.o
 .text.encoder_expand_buffer_x2_yuv420p
                0x0001d8d4       0x9c ./obj/local/armeabi-v7a/objs/adfreeflight/Stubs/transcoding_service_stub.o
 .text.encoder_handle
                0x0001d970       0x34 ./obj/local/armeabi-v7a/objs/adfreeflight/Stubs/transcoding_service_stub.o
                0x0001d970                encoder_handle
 .text.thread_encoder
                0x0001d9a4      0x384 ./obj/local/armeabi-v7a/objs/adfreeflight/Stubs/transcoding_service_stub.o
                0x0001d9a4                thread_encoder
 .text.encoder_stage_close
                0x0001dd28      0x168 ./obj/local/armeabi-v7a/objs/adfreeflight/Stubs/transcoding_service_stub.o
                0x0001dd28                encoder_stage_close
 .text.encoder_stage_transform
                0x0001de90      0x5c4 ./obj/local/armeabi-v7a/objs/adfreeflight/Stubs/transcoding_service_stub.o
                0x0001de90                encoder_stage_transform
 .text.alloc_picture
                0x0001e454       0x44 ./obj/local/armeabi-v7a/objs/adfreeflight/Stubs/transcoding_service_stub.o
 .text.Java_com_parrot_freeflight_transcodeservice_TranscodingService_encoderThreadStart
                0x0001e498       0x3c ./obj/local/armeabi-v7a/objs/adfreeflight/Stubs/transcoding_service_stub.o
                0x0001e498                Java_com_parrot_freeflight_transcodeservice_TranscodingService_encoderThreadStart
 .text.encoderThreadResume
                0x0001e4d4       0x40 ./obj/local/armeabi-v7a/objs/adfreeflight/Stubs/transcoding_service_stub.o
                0x0001e4d4                encoderThreadResume
 .text.encoderThreadStop
                0x0001e514       0x40 ./obj/local/armeabi-v7a/objs/adfreeflight/Stubs/transcoding_service_stub.o
                0x0001e514                encoderThreadStop
 .text.encoder_stage_open
                0x0001e554      0x4fc ./obj/local/armeabi-v7a/objs/adfreeflight/Stubs/transcoding_service_stub.o
                0x0001e554                encoder_stage_open
 .text          0x0001ea50        0x0 ./obj/local/armeabi-v7a/objs/adfreeflight/Stubs/gl_bg_video_sprite_stub.o
 .text.Java_com_parrot_freeflight_ui_gl_GLBGVideoSprite_onSurfaceChangedNative
                0x0001ea50       0x28 ./obj/local/armeabi-v7a/objs/adfreeflight/Stubs/gl_bg_video_sprite_stub.o
                0x0001ea50                Java_com_parrot_freeflight_ui_gl_GLBGVideoSprite_onSurfaceChangedNative
 .text.Java_com_parrot_freeflight_ui_gl_GLBGVideoSprite_getVideoFrameNative
                0x0001ea78      0x1f0 ./obj/local/armeabi-v7a/objs/adfreeflight/Stubs/gl_bg_video_sprite_stub.o
                0x0001ea78                Java_com_parrot_freeflight_ui_gl_GLBGVideoSprite_getVideoFrameNative
 .text.Java_com_parrot_freeflight_ui_gl_GLBGVideoSprite_onUpdateVideoTextureNative
                0x0001ec68      0x1b8 ./obj/local/armeabi-v7a/objs/adfreeflight/Stubs/gl_bg_video_sprite_stub.o
                0x0001ec68                Java_com_parrot_freeflight_ui_gl_GLBGVideoSprite_onUpdateVideoTextureNative
 .text          0x0001ee20        0x0 ./obj/local/armeabi-v7a/objs/adfreeflight/NavData/nav_data.o
 .text.navdata_get
                0x0001ee20       0x38 ./obj/local/armeabi-v7a/objs/adfreeflight/NavData/nav_data.o
                0x0001ee20                navdata_get
 .text.navdata_reset
                0x0001ee58       0x20 ./obj/local/armeabi-v7a/objs/adfreeflight/NavData/nav_data.o
                0x0001ee58                navdata_reset
 .text.navdata_process
                0x0001ee78       0x58 ./obj/local/armeabi-v7a/objs/adfreeflight/NavData/nav_data.o
                0x0001ee78                navdata_process
 .text.navdata_release
                0x0001eed0       0x38 ./obj/local/armeabi-v7a/objs/adfreeflight/NavData/nav_data.o
                0x0001eed0                navdata_release
 .text.navdata_init
                0x0001ef08       0x54 ./obj/local/armeabi-v7a/objs/adfreeflight/NavData/nav_data.o
                0x0001ef08                navdata_init
 .text          0x0001ef5c        0x0 ./obj/local/armeabi-v7a/objs/adfreeflight/Video/video_stage_renderer.o
 .text.parrot_video_stage_renderer_invalidate
                0x0001ef5c       0x10 ./obj/local/armeabi-v7a/objs/adfreeflight/Video/video_stage_renderer.o
                0x0001ef5c                parrot_video_stage_renderer_invalidate
 .text.parrot_video_stage_init
                0x0001ef6c        0x4 ./obj/local/armeabi-v7a/objs/adfreeflight/Video/video_stage_renderer.o
                0x0001ef6c                parrot_video_stage_init
 .text.parrot_video_stage_deinit
                0x0001ef70        0x4 ./obj/local/armeabi-v7a/objs/adfreeflight/Video/video_stage_renderer.o
                0x0001ef70                parrot_video_stage_deinit
 .text.Java_com_parrot_freeflight_video_VideoStageRenderer_getVideoFrameNative
                0x0001ef74        0x4 ./obj/local/armeabi-v7a/objs/adfreeflight/Video/video_stage_renderer.o
                0x0001ef74                Java_com_parrot_freeflight_video_VideoStageRenderer_getVideoFrameNative
 .text          0x0001ef78        0x0 ./obj/local/armeabi-v7a/objs/adfreeflight/Video/frame_rate.o
 .text.parrot_frame_rate_init
                0x0001ef78       0x18 ./obj/local/armeabi-v7a/objs/adfreeflight/Video/frame_rate.o
                0x0001ef78                parrot_frame_rate_init
 .text.parrot_frame_rate_on_draw_completed
                0x0001ef90       0x64 ./obj/local/armeabi-v7a/objs/adfreeflight/Video/frame_rate.o
                0x0001ef90                parrot_frame_rate_on_draw_completed
 .text          0x0001eff4        0x0 ./obj/local/armeabi-v7a/objs/adfreeflight/Controller/virtual_gamepad.o
 .text.close_gamepad
                0x0001eff4       0x20 ./obj/local/armeabi-v7a/objs/adfreeflight/Controller/virtual_gamepad.o
 .text.open_gamepad
                0x0001f014       0x20 ./obj/local/armeabi-v7a/objs/adfreeflight/Controller/virtual_gamepad.o
 .text.update_gamepad
                0x0001f034        0xc ./obj/local/armeabi-v7a/objs/adfreeflight/Controller/virtual_gamepad.o
 .text          0x0001f040        0x0 ./obj/local/armeabi-v7a/objs/adfreeflight/Video/opengl_stage.o
 .text.opengl_video_stage_get
                0x0001f040        0xc ./obj/local/armeabi-v7a/objs/adfreeflight/Video/opengl_stage.o
                0x0001f040                opengl_video_stage_get
 .text.opengl_video_stage_close
                0x0001f04c        0xc ./obj/local/armeabi-v7a/objs/adfreeflight/Video/opengl_stage.o
                0x0001f04c                opengl_video_stage_close
 .text.opengl_video_stage_transform
                0x0001f058      0x1e0 ./obj/local/armeabi-v7a/objs/adfreeflight/Video/opengl_stage.o
                0x0001f058                opengl_video_stage_transform
 .text.opengl_video_stage_open
                0x0001f238        0xc ./obj/local/armeabi-v7a/objs/adfreeflight/Video/opengl_stage.o
                0x0001f238                opengl_video_stage_open
 .text          0x0001f244        0x0 ./obj/local/armeabi-v7a/objs/adfreeflight/Video/opengl_shader.o
 .text.opengl_shader_destroy
                0x0001f244       0x28 ./obj/local/armeabi-v7a/objs/adfreeflight/Video/opengl_shader.o
                0x0001f244                opengl_shader_destroy
 .text.opengl_shader_validate
                0x0001f26c       0x68 ./obj/local/armeabi-v7a/objs/adfreeflight/Video/opengl_shader.o
                0x0001f26c                opengl_shader_validate
 .text.opengl_shader_link
                0x0001f2d4       0x30 ./obj/local/armeabi-v7a/objs/adfreeflight/Video/opengl_shader.o
                0x0001f2d4                opengl_shader_link
 .text.opengl_shader_compile
                0x0001f304       0x60 ./obj/local/armeabi-v7a/objs/adfreeflight/Video/opengl_shader.o
                0x0001f304                opengl_shader_compile
 .text          0x0001f364        0x0 ./obj/local/armeabi-v7a/objs/adfreeflight/Video/opengl_texture.o
 .text.opengl_texture_destroy
                0x0001f364       0x34 ./obj/local/armeabi-v7a/objs/adfreeflight/Video/opengl_texture.o
                0x0001f364                opengl_texture_destroy
 .text.opengl_texture_scale_compute
                0x0001f398      0x10c ./obj/local/armeabi-v7a/objs/adfreeflight/Video/opengl_texture.o
                0x0001f398                opengl_texture_scale_compute
 .text.opengl_texture_draw
                0x0001f4a4       0x74 ./obj/local/armeabi-v7a/objs/adfreeflight/Video/opengl_texture.o
                0x0001f4a4                opengl_texture_draw
 .text.opengl_texture_init
                0x0001f518        0xc ./obj/local/armeabi-v7a/objs/adfreeflight/Video/opengl_texture.o
                0x0001f518                opengl_texture_init
 .text          0x0001f524      0x234 ./obj/local/armeabi-v7a/libpc_ardrone.a(ardrone_version.o)
                0x0001f564                compareVersions
                0x0001f5b4                getDroneVersion
 .text          0x0001f758     0x6090 ./obj/local/armeabi-v7a/libpc_ardrone.a(ardrone_ftp.o)
                0x0001f798                emptyCallback
                0x0001f7d0                flushFtp
                0x0001f864                ftpAbort
                0x0001f918                ftpSend
                0x0001faac                ftpList
                0x0001fd80                ftpGet
                0x0001ff3c                ftpPut
                0x000200f8                ftpClose
                0x000201b0                getPassiveIpAndPort
                0x00020298                getResponseCode
                0x000202cc                getLocalFileSize
                0x00020318                setSockTimeout
                0x00020460                ftpRecv
                0x00020624                waitFor226Answer
                0x0002068c                ftpTransfert
                0x000206ec                getFileSize
                0x00020860                goToBinaryMode
                0x0002095c                ftpPwd
                0x00020ca4                thread_ftpList
                0x000219a8                ftpCd
                0x00021cbc                ftpRemove
                0x00021fe4                ftpRmdir
                0x00022314                ftpMkdir
                0x00022630                thread_ftpPut
                0x00023958                thread_ftpGet
                0x00024b94                ftpRename
                0x00024fe4                ftpConnect
                0x000257a4                ftpConnectFromName
 .text          0x000257e8     0x1110 ./obj/local/armeabi-v7a/libpc_ardrone.a(ardrone_video_atoms.o)
                0x000257e8                writeAtomToFile
                0x000258d0                insertAtomIntoAtom
                0x000259f4                atomFromData
                0x00025a8c                ardtAtomFromPathAndDroneVersion
                0x00025b84                stscAtomGen
                0x00025c08                sttsAtomWithNumFrames
                0x00025c98                drefAtomGen
                0x00025d10                hdlrAtomForMinf
                0x00025d90                vmhdAtomGen
                0x00025e1c                hdlrAtomForMdia
                0x00025ea0                mdhdAtomFromFpsNumFramesAndDate
                0x00025f64                tkhdAtomWithResolutionNumFramesFpsAndDate
                0x00026094                mvhdAtomFromFpsNumFramesAndDate
                0x000261b8                mdatAtomForFormatWithVideoSize
                0x00026310                ftypAtomForFormatAndCodecWithOffset
                0x00026440                stsdAtomWithResolutionAndCodec
                0x00026594                metadataAtomFromTagAndValue
                0x0002667c                stsdAtomWithResolutionCodecSpsAndPps
 .text          0x000268f8     0x3668 ./obj/local/armeabi-v7a/libpc_ardrone.a(ardrone_video_encapsuler.o)
                0x000268f8                ardrone_video_set_gps_infos
                0x00026928                ardrone_video_error_string
                0x00026a34                generateGpsString
                0x00026b60                ardrone_video_remove_all
                0x00026b8c                ardrone_video_cleanup
                0x00026cb0                ardrone_video_finish
                0x00027b0c                ardrone_video_try_fix
                0x00027f70                ftwCallback
                0x00028044                ardrone_video_addFrame
                0x00028d88                ardrone_video_addSlice
                0x00029b6c                ardrone_video_start
 .text          0x00029f60      0x824 ./obj/local/armeabi-v7a/libpc_ardrone.a(video_stage_encoded_recorder.o)
                0x00029f60                video_stage_encoded_recorder_state
                0x00029f8c                video_stage_encoded_complete_recorder_state
                0x00029fb0                frameIsLastFrame
                0x00029fe4                video_stage_encoded_recorder_close
                0x0002a008                video_stage_encoded_recorder_open
                0x0002a068                video_stage_encoded_recorder_finish
                0x0002a158                video_stage_encoded_recorder_transform
                0x0002a490                video_stage_encoded_recorder_handle
                0x0002a6a8                video_stage_encoded_recorder_force_stop
                0x0002a6e0                video_stage_encoded_recorder_com_timeout
                0x0002a718                video_stage_encoded_recorder_enable
 .text          0x0002a784      0xac0 ./obj/local/armeabi-v7a/libpc_ardrone.a(video_stage_latency_estimation.o)
                0x0002a784                latency_estimation_stage_open
                0x0002a7ac                latency_estimation_stage_close
                0x0002a7c4                latency_estimation_stage_transform
                0x0002b224                latency_estimation_stage_handle_message
 .text          0x0002b244      0x3f8 ./obj/local/armeabi-v7a/libpc_ardrone.a(video_recorder_pipeline.o)
                0x0002b244                video_recorder_get_num_retries
                0x0002b268                video_recorder_suspend_thread
                0x0002b2a4                thread_video_recorder
                0x0002b5c4                video_recorder_resume_thread
                0x0002b608                video_recorder_init
 .text          0x0002b63c      0x6e0 ./obj/local/armeabi-v7a/libpc_ardrone.a(video_stage.o)
                0x0002b63c                video_stage_get_num_retries
                0x0002b660                video_stage_suspend_thread
                0x0002b69c                thread_video_stage
                0x0002bcac                video_stage_resume_thread
                0x0002bcf0                video_stage_init
 .text          0x0002bd1c      0x470 ./obj/local/armeabi-v7a/libpc_ardrone.a(AR_Ftw.o)
                0x0002bd1c                typeFlagGet
                0x0002bd44                AR_Nftw_retValTest
                0x0002bd8c                AR_Nftw_internal
                0x0002bfa8                nftw
                0x0002bfd0                AR_Ftw_internal
                0x0002c174                ftw
 .text          0x0002c18c     0x8e54 ./obj/local/armeabi-v7a/libpc_ardrone.a(ardrone_at_mutex.o)
                0x0002c18c                host_enable
                0x0002c1b8                host_write
                0x0002c214                host_read
                0x0002c240                ardrone_at_send
                0x0002c2f0                ardrone_at_init
                0x0002c350                ardrone_at_init_with_funcs
                0x0002c3b4                ardrone_at_shutdown
                0x0002c3ec                host_shutdown
                0x0002c41c                ardrone_at_set_calibration
                0x0002c47c                ardrone_at_set_autonomous_flight
                0x0002c4dc                ardrone_at_set_pwm
                0x0002c560                ardrone_at_update_control_mode
                0x0002c5c4                ardrone_at_configuration_ack_ctrl_mode
                0x0002c600                ardrone_at_custom_configuration_get_ctrl_mode
                0x0002c63c                ardrone_at_configuration_get_ctrl_mode
                0x0002c678                ardrone_at_reset_com_watchdog
                0x0002c6d0                ardrone_at_set_toy_configuration_ids
                0x0002c77c                ardrone_at_configuration_set_drone_serial
                0x0002c8a8                ardrone_at_set_vicon_data
                0x0002c998                ardrone_at_set_polaris_pos
                0x0002ca24                ardrone_at_set_vision_update_options
                0x0002ca84                ardrone_at_set_led_animation
                0x0002cb04                ardrone_at_set_progress_cmd_with_magneto
                0x0002cc54                ardrone_at_set_progress_cmd
                0x0002cd3c                ardrone_at_cad
                0x0002cda4                ardrone_at_zap
                0x0002ce04                ardrone_at_raw_picture
                0x0002ce64                ardrone_at_raw_capture
                0x0002cec8                ardrone_at_set_vision_track_params
                0x0002cf6c                ardrone_at_set_control_gains
                0x0002d054                ardrone_at_set_manual_trims
                0x0002d0d4                ardrone_at_set_flat_trim
                0x0002d12c                ardrone_at_set_anim
                0x0002d194                ardrone_at_set_ui_misc
                0x0002d218                ardrone_at_set_pmode
                0x0002d278                ardrone_at_set_ui_pad_value
                0x0002d2d8                host_close
                0x0002d314                host_open
                0x0002d4e4                ardrone_at_open
                0x0002d518                host_init
                0x0002d804                ardrone_at_configuration_set_num_version_config
                0x0002d948                ardrone_at_configuration_set_altitude
                0x0002da8c                ardrone_at_configuration_set_longitude
                0x0002dbd0                ardrone_at_configuration_set_latitude
                0x0002dd14                ardrone_at_configuration_set_nb_files
                0x0002de58                ardrone_at_configuration_set_max_size
                0x0002df9c                ardrone_at_configuration_set_output
                0x0002e0e0                ardrone_at_configuration_set_detections_select_v
                0x0002e224                ardrone_at_configuration_set_detections_select_v_hsync
                0x0002e368                ardrone_at_configuration_set_detections_select_h
                0x0002e4ac                ardrone_at_configuration_set_detect_type
                0x0002e5f0                ardrone_at_configuration_set_enemy_without_shell
                0x0002e734                ardrone_at_configuration_set_groundstripe_colors
                0x0002e878                ardrone_at_configuration_set_enemy_colors
                0x0002e9bc                ardrone_at_configuration_set_video_file_index
                0x0002eb00                ardrone_at_configuration_set_video_channel
                0x0002ec44                ardrone_at_configuration_set_bitrate_storage
                0x0002ed88                ardrone_at_configuration_set_bitrate_ctrl_mode
                0x0002eecc                ardrone_at_configuration_set_max_bitrate
                0x0002f010                ardrone_at_configuration_set_bitrate
                0x0002f154                ardrone_at_configuration_set_video_storage_space
                0x0002f298                ardrone_at_configuration_set_video_live_socket
                0x0002f3dc                ardrone_at_configuration_set_video_slices
                0x0002f520                ardrone_at_configuration_set_video_codec
                0x0002f664                ardrone_at_configuration_set_num_trackers
                0x0002f7a8                ardrone_at_configuration_set_camif_buffers
                0x0002f8ec                ardrone_at_configuration_set_codec_fps
                0x0002fa30                ardrone_at_configuration_set_camif_fps
                0x0002fb74                ardrone_at_configuration_set_pic_version
                0x0002fcb8                ardrone_at_configuration_set_ultrasound_watchdog
                0x0002fdfc                ardrone_at_configuration_set_ultrasound_freq
                0x0002ff40                ardrone_at_configuration_set_wifi_rate
                0x00030084                ardrone_at_configuration_set_wifi_mode
                0x000301c8                ardrone_at_configuration_set_hovering_range
                0x0003030c                ardrone_at_configuration_set_flying_mode
                0x00030450                ardrone_at_configuration_set_outdoor_control_yaw
                0x00030598                ardrone_at_configuration_set_outdoor_control_vz_max
                0x000306e0                ardrone_at_configuration_set_outdoor_euler_angle_max
                0x00030828                ardrone_at_configuration_set_indoor_control_yaw
                0x00030970                ardrone_at_configuration_set_indoor_control_vz_max
                0x00030ab8                ardrone_at_configuration_set_indoor_euler_angle_max
                0x00030c00                ardrone_at_configuration_set_control_yaw
                0x00030d48                ardrone_at_configuration_set_control_vz_max
                0x00030e90                ardrone_at_configuration_set_control_iphone_tilt
                0x00030fd8                ardrone_at_configuration_set_altitude_min
                0x0003111c                ardrone_at_configuration_set_altitude_max
                0x00031260                ardrone_at_configuration_set_euler_angle_max
                0x000313a8                ardrone_at_configuration_set_control_level
                0x000314ec                ardrone_at_configuration_set_osctun_value
                0x00031630                ardrone_at_configuration_set_pwm_ref_gyros
                0x00031774                ardrone_at_configuration_set_gyro_offset_thr_z
                0x000318bc                ardrone_at_configuration_set_gyro_offset_thr_y
                0x00031a04                ardrone_at_configuration_set_gyro_offset_thr_x
                0x00031b4c                ardrone_at_configuration_set_vbat_min
                0x00031c90                ardrone_at_configuration_set_com_watchdog
                0x00031dd4                ardrone_at_configuration_set_navdata_options
                0x00031f18                ardrone_at_configuration_set_flying_time
                0x0003205c                ardrone_at_configuration_set_num_version_mb
                0x000321a0                ardrone_at_configuration_set_manual_trim
                0x000322f8                ardrone_at_configuration_set_autonomous_flight
                0x00032450                ardrone_at_configuration_set_flight_without_shell
                0x000325a8                ardrone_at_configuration_set_vision_enable
                0x00032700                ardrone_at_configuration_set_video_enable
                0x00032858                ardrone_at_configuration_set_outdoor
                0x000329b0                ardrone_at_configuration_set_osctun_test
                0x00032b08                ardrone_at_configuration_set_navdata_demo
                0x00032c60                ardrone_at_configuration_set_travelling_enable
                0x00032db8                ardrone_at_configuration_set_video_on_usb
                0x00032f10                ardrone_at_configuration_set_owner_mac
                0x0003303c                ardrone_at_configuration_set_userbox_cmd
                0x00033168                ardrone_at_configuration_set_leds_anim
                0x00033294                ardrone_at_configuration_set_ardrone_name
                0x000333c0                ardrone_at_configuration_set_travelling_mode
                0x000334ec                ardrone_at_configuration_set_ssid_multi_player
                0x00033618                ardrone_at_configuration_set_ssid_single_player
                0x00033744                ardrone_at_configuration_set_application_desc
                0x00033870                ardrone_at_configuration_set_application_id
                0x0003399c                ardrone_at_configuration_set_session_desc
                0x00033ac8                ardrone_at_configuration_set_session_id
                0x00033bf4                ardrone_at_configuration_set_profile_desc
                0x00033d20                ardrone_at_configuration_set_profile_id
                0x00033e4c                ardrone_at_configuration_set_num_version_soft
                0x00033f78                ardrone_at_configuration_set_flight_anim
                0x000340a4                ardrone_at_configuration_set_motor4_supplier
                0x000341d0                ardrone_at_configuration_set_motor4_soft
                0x000342fc                ardrone_at_configuration_set_motor3_supplier
                0x00034428                ardrone_at_configuration_set_motor3_hard
                0x00034554                ardrone_at_configuration_set_motor3_soft
                0x00034680                ardrone_at_configuration_set_motor2_supplier
                0x000347ac                ardrone_at_configuration_set_motor2_hard
                0x000348d8                ardrone_at_configuration_set_motor4_hard
                0x00034a04                ardrone_at_configuration_set_motor1_supplier
                0x00034b30                ardrone_at_configuration_set_motor1_hard
                0x00034c5c                ardrone_at_configuration_set_motor2_soft
                0x00034d88                ardrone_at_configuration_set_motor1_soft
                0x00034eb4                ardrone_at_configuration_set_soft_build_date
 .text          0x00034fe0      0x750 ./obj/local/armeabi-v7a/libpc_ardrone.a(academy.o)
                0x00034fe0                academy_setState
                0x00035000                academy_resetState
                0x00035020                academy_nextState
                0x00035060                academy_stateOK
                0x0003507c                academy_stateERROR
                0x00035098                thread_academy
                0x00035280                academy_get_next_item_with_prefix
                0x000353a4                academy_remove_ftp_directory
                0x00035484                academy_compute_memory_used
                0x0003558c                academy_remove
                0x000355a8                academy_check_memory
                0x000355d8                academy_shutdown
                0x00035628                academy_init
 .text          0x00035730      0xc0c ./obj/local/armeabi-v7a/libpc_ardrone.a(academy_upload.o)
                0x00035730                academy_disconnect
                0x000359a4                academy_upload_shutdown
                0x000359f4                academy_upload_init
                0x00035a64                academy_connect
                0x00035ba0                thread_academy_upload
 .text          0x0003633c      0x46c ./obj/local/armeabi-v7a/libpc_ardrone.a(academy_stage_recorder.o)
                0x0003633c                ardrone_academy_stage_recorder_state
                0x00036368                ardrone_academy_stage_recorder_open
                0x00036438                ardrone_academy_stage_recorder_close
                0x00036458                ardrone_academy_stage_recorder_transform
                0x00036538                ardrone_academy_stage_recorder_handle
                0x0003673c                ardrone_academy_stage_recorder_enable
 .text          0x000367a8     0x1c20 ./obj/local/armeabi-v7a/libpc_ardrone.a(ardrone_navdata_file.o)
                0x000367a8                ardrone_navdata_file_release
                0x000369e8                ardrone_navdata_file_process
                0x00038248                ardrone_navdata_file_init
 .text          0x000383c8      0x984 ./obj/local/armeabi-v7a/libpc_ardrone.a(ardrone_general_navdata.o)
                0x000383c8                configurationCallback
                0x0003846c                navdataCallback
                0x000384a4                ardrone_general_navdata_release
                0x000384bc                ardrone_refresh_user_list
                0x00038504                ardrone_free_user_list
                0x00038544                ardrone_get_user_list
                0x00038674                ardrone_switch_to_user_id
                0x0003872c                ardrone_switch_to_user
                0x0003878c                ardrone_general_navdata_process
                0x00038d00                ardrone_general_navdata_init
 .text          0x00038d4c      0xfdc ./obj/local/armeabi-v7a/libpc_ardrone.a(ardrone_academy_navdata.o)
                0x00038d4c                ardrone_academy_navdata_get_camera_state
                0x00038d84                ardrone_academy_navdata_get_usb_state
                0x00038da8                ardrone_academy_navdata_get_takeoff_state
                0x00038dcc                ardrone_academy_navdata_get_emergency_state
                0x00038df0                ardrone_academy_navdata_get_remaining_usb_time
                0x00038e14                ardrone_academy_navdata_get_flying_state
                0x00038e48                ardrone_academy_navdata_set_wifi_record_codec
                0x00038e6c                ardrone_academy_navdata_userbox_switch
                0x00038f34                ardrone_academy_navdata_init
                0x00038fa4                ardrone_academy_check_take_off_timeout
                0x0003903c                ardrone_academy_navdata_screenshot_cb
                0x00039088                ardrone_academy_navdata_check_takeoff_cancelled
                0x000390c4                ardrone_academy_navdata_check_usb_record_status
                0x00039100                ardrone_academy_navdata_screenshot
                0x00039148                ardrone_academy_navdata_record
                0x00039190                ardrone_academy_navdata_emergency
                0x000391c8                ardrone_academy_navdata_takeoff
                0x00039244                ardrone_academy_navdata_recorder_enable
                0x000392c0                ardrone_academy_navdata_userbox_cb
                0x00039430                ardrone_academy_navdata_get_record_state
                0x000394bc                ardrone_academy_navdata_release
                0x00039504                ardrone_academy_navdata_get_record_ready
                0x00039588                ardrone_academy_navdata_process
 .text          0x00039d28      0x8c4 ./obj/local/armeabi-v7a/libpc_ardrone.a(ardrone_input.o)
                0x00039d28                ardrone_tool_set_ui_pad_ab
                0x00039d7c                ardrone_tool_set_ui_pad_ag
                0x00039dd0                ardrone_tool_set_ui_pad_ad
                0x00039e24                ardrone_tool_set_ui_pad_ah
                0x00039e78                ardrone_tool_set_ui_pad_l1
                0x00039ecc                ardrone_tool_set_ui_pad_r1
                0x00039f20                ardrone_tool_set_ui_pad_l2
                0x00039f74                ardrone_tool_set_ui_pad_r2
                0x00039fc8                ardrone_tool_set_ui_pad_select
                0x0003a01c                ardrone_tool_set_ui_pad_start
                0x0003a070                ardrone_tool_set_ui_pad_xy
                0x0003a0b0                ardrone_tool_set_ui_pad_phi_trim
                0x0003a0e8                ardrone_tool_set_ui_pad_theta_trim
                0x0003a120                ardrone_tool_set_ui_pad_yaw_trim
                0x0003a158                ardrone_tool_set_progressive_cmd
                0x0003a1a4                ardrone_tool_input_start_reset
                0x0003a1bc                ardrone_tool_input_get_state
                0x0003a2bc                ardrone_tool_input_shutdown
                0x0003a2e4                ardrone_tool_input_remove
                0x0003a338                ardrone_tool_input_add
                0x0003a420                ardrone_tool_input_update
                0x0003a548                ardrone_tool_input_reset
                0x0003a5b4                ardrone_tool_input_init
 .text          0x0003a5ec     0x9d5c ./obj/local/armeabi-v7a/libpc_ardrone.a(ardrone_tool_configuration.o)
                0x0003a5ec                ardrone_tool_configuration_init
                0x0003b6f0                ardrone_tool_custom_configuration_get
                0x0003b7bc                ardrone_tool_configuration_get
                0x0003b9e4                ardrone_tool_configuration_addevent_num_version_soft
                0x0003bb40                ardrone_tool_reset_configuration
                0x0003c118                ardrone_tool_configuration_addevent_num_version_config
                0x0003c258                ardrone_tool_configuration_addevent_altitude
                0x0003c398                ardrone_tool_configuration_addevent_num_trackers
                0x0003c4d8                ardrone_tool_configuration_addevent_detect_type
                0x0003c618                ardrone_tool_configuration_addevent_euler_angle_max
                0x0003c758                ardrone_tool_configuration_addevent_latitude
                0x0003c898                ardrone_tool_configuration_addevent_flying_mode
                0x0003c9d8                ardrone_tool_configuration_addevent_bitrate_storage
                0x0003cb18                ardrone_tool_configuration_addevent_num_version_mb
                0x0003cc58                ardrone_tool_configuration_addevent_longitude
                0x0003cd98                ardrone_tool_configuration_addevent_video_file_index
                0x0003ced8                ardrone_tool_configuration_addevent_output
                0x0003d018                ardrone_tool_configuration_addevent_video_storage_space
                0x0003d158                ardrone_tool_configuration_addevent_nb_files
                0x0003d298                ardrone_tool_configuration_addevent_groundstripe_colors
                0x0003d3d8                ardrone_tool_configuration_addevent_wifi_rate
                0x0003d518                ardrone_tool_configuration_addevent_detections_select_v_hsync
                0x0003d658                ardrone_tool_configuration_addevent_vbat_min
                0x0003d798                ardrone_tool_configuration_addevent_max_bitrate
                0x0003d8d8                ardrone_tool_configuration_addevent_autonomous_flight
                0x0003da18                ardrone_tool_configuration_addevent_max_size
                0x0003db58                ardrone_tool_configuration_addevent_pwm_ref_gyros
                0x0003dc98                ardrone_tool_configuration_addevent_video_on_usb
                0x0003ddd8                ardrone_tool_configuration_addevent_pic_version
                0x0003df18                ardrone_tool_configuration_addevent_detections_select_v
                0x0003e058                ardrone_tool_configuration_addevent_navdata_options
                0x0003e198                ardrone_tool_configuration_addevent_video_slices
                0x0003e2d8                ardrone_tool_configuration_addevent_indoor_control_yaw
                0x0003e418                ardrone_tool_configuration_addevent_detections_select_h
                0x0003e558                ardrone_tool_configuration_addevent_osctun_test
                0x0003e698                ardrone_tool_configuration_addevent_enemy_without_shell
                0x0003e7d8                ardrone_tool_configuration_addevent_bitrate_ctrl_mode
                0x0003e918                ardrone_tool_configuration_addevent_travelling_enable
                0x0003ea58                ardrone_tool_configuration_addevent_video_channel
                0x0003eb98                ardrone_tool_configuration_addevent_video_enable
                0x0003ecd8                ardrone_tool_configuration_addevent_video_live_socket
                0x0003ee18                ardrone_tool_configuration_addevent_control_vz_max
                0x0003ef58                ardrone_tool_configuration_addevent_enemy_colors
                0x0003f098                ardrone_tool_configuration_addevent_gyro_offset_thr_y
                0x0003f1d8                ardrone_tool_configuration_addevent_bitrate
                0x0003f318                ardrone_tool_configuration_addevent_codec_fps
                0x0003f458                ardrone_tool_configuration_addevent_video_codec
                0x0003f598                ardrone_tool_configuration_addevent_flying_time
                0x0003f6d8                ardrone_tool_configuration_addevent_outdoor_control_vz_max
                0x0003f818                ardrone_tool_configuration_addevent_control_level
                0x0003f958                ardrone_tool_configuration_addevent_wifi_mode
                0x0003fa98                ardrone_tool_configuration_addevent_vision_enable
                0x0003fbd8                ardrone_tool_configuration_addevent_outdoor
                0x0003fd18                ardrone_tool_configuration_addevent_gyro_offset_thr_z
                0x0003fe58                ardrone_tool_configuration_addevent_ultrasound_freq
                0x0003ff98                ardrone_tool_configuration_addevent_navdata_demo
                0x000400d8                ardrone_tool_configuration_addevent_indoor_euler_angle_max
                0x00040218                ardrone_tool_configuration_addevent_osctun_value
                0x00040358                ardrone_tool_configuration_addevent_hovering_range
                0x00040498                ardrone_tool_configuration_addevent_com_watchdog
                0x000405d8                ardrone_tool_configuration_addevent_altitude_min
                0x00040718                ardrone_tool_configuration_addevent_gyro_offset_thr_x
                0x00040858                ardrone_tool_configuration_addevent_camif_buffers
                0x00040998                ardrone_tool_configuration_addevent_outdoor_control_yaw
                0x00040ad8                ardrone_tool_configuration_addevent_ultrasound_watchdog
                0x00040c18                ardrone_tool_configuration_addevent_flight_without_shell
                0x00040d58                ardrone_tool_configuration_addevent_camif_fps
                0x00040e98                ardrone_tool_configuration_addevent_indoor_control_vz_max
                0x00040fd8                ardrone_tool_configuration_addevent_control_iphone_tilt
                0x00041118                ardrone_tool_configuration_addevent_outdoor_euler_angle_max
                0x00041258                ardrone_tool_configuration_addevent_control_yaw
                0x00041398                ardrone_tool_configuration_addevent_manual_trim
                0x000414d8                ardrone_tool_configuration_addevent_altitude_max
                0x00041618                ardrone_tool_configuration_addevent_session_desc
                0x00041774                ardrone_tool_configuration_addevent_leds_anim
                0x000418d0                ardrone_tool_configuration_addevent_userbox_cmd
                0x00041a2c                ardrone_tool_configuration_addevent_application_desc
                0x00041b88                ardrone_tool_send_application_default
                0x00041c94                ardrone_tool_configuration_addevent_profile_desc
                0x00041df0                ardrone_tool_configuration_addevent_application_id
                0x00041f4c                ardrone_tool_configuration_addevent_session_id
                0x000420a8                ardrone_tool_configuration_addevent_profile_id
                0x00042204                ardrone_tool_send_session_default
                0x00042594                ardrone_tool_configuration_addevent_motor4_supplier
                0x000426f0                ardrone_tool_configuration_addevent_ssid_multi_player
                0x0004284c                ardrone_tool_configuration_addevent_ardrone_name
                0x000429a8                ardrone_tool_configuration_addevent_owner_mac
                0x00042b04                ardrone_tool_configuration_addevent_motor2_soft
                0x00042c60                ardrone_tool_configuration_addevent_travelling_mode
                0x00042dbc                ardrone_tool_send_user_default
                0x00043040                ardrone_tool_configuration_addevent_motor3_hard
                0x0004319c                ardrone_tool_configuration_addevent_ssid_single_player
                0x000432f8                ardrone_tool_configuration_addevent_soft_build_date
                0x00043454                ardrone_tool_configuration_addevent_flight_anim
                0x000435b0                ardrone_tool_configuration_addevent_motor4_soft
                0x0004370c                ardrone_tool_configuration_addevent_motor4_hard
                0x00043868                ardrone_tool_configuration_addevent_motor2_supplier
                0x000439c4                ardrone_tool_configuration_addevent_motor1_hard
                0x00043b20                ardrone_tool_configuration_addevent_motor2_hard
                0x00043c7c                ardrone_tool_configuration_addevent_motor3_supplier
                0x00043dd8                ardrone_tool_configuration_addevent_motor3_soft
                0x00043f34                ardrone_tool_configuration_addevent_motor1_supplier
                0x00044090                ardrone_tool_configuration_addevent_drone_serial
                0x000441ec                ardrone_tool_configuration_addevent_motor1_soft
 .text          0x00044348      0xbd8 ./obj/local/armeabi-v7a/libpc_ardrone.a(ardrone_tool.o)
                0x00044348                ardrone_tool_send_com_watchdog
                0x00044370                ardrone_tool_set_refresh_time
                0x000443a0                ardrone_tool_init_custom
                0x000443b8                ardrone_tool_update_custom
                0x000443e8                ardrone_tool_shutdown_custom
                0x00044418                ardrone_tool_check_argc_custom
                0x00044430                ardrone_tool_display_cmd_line_custom
                0x00044444                ardrone_tool_parse_cmd_line_custom
                0x000444bc                ardrone_tool_shutdown
                0x00044574                ardrone_tool_update
                0x00044628                ardrone_tool_resume
                0x00044664                ardrone_tool_suspend
                0x000446a0                ardrone_tool_init_timers_and_mutex
                0x000446dc                ardrone_tool_init
                0x0004491c                ardrone_tool_setup_com
                0x000449b4                ardrone_tool_main
 .text          0x00044f20      0x720 ./obj/local/armeabi-v7a/libpc_ardrone.a(config_wifi.o)
                0x00044f20                wifi_com
                0x00044f40                wifi_connection
                0x00044f64                wifi_config_socket
                0x00044fc0                wifi_config
                0x00045308                wifi_server_auth
 .text          0x00045640     0x1040 ./obj/local/armeabi-v7a/libpc_ardrone.a(video_com_stage.o)
                0x00045640                video_com_multisocket_stage_close
                0x0004568c                video_com_stage_close
                0x000456a8                video_com_stage_notify_timeout
                0x0004570c                video_com_stage_connect
                0x00045a28                video_com_multisocket_stage_transform
                0x00046140                video_com_stage_transform
                0x00046430                video_com_stage_register
                0x000464d0                video_com_multisocket_stage_open
                0x00046658                video_com_stage_open
 .text          0x00046680      0x328 ./obj/local/armeabi-v7a/libpc_ardrone.a(video_navdata_handler.o)
                0x00046680                video_navdata_handler_init
                0x00046710                video_navdata_handler_release
                0x00046728                startRetreiving
                0x0004675c                endRetreiving
                0x00046784                video_navdata_handler_process
 .text          0x000469a8      0x514 ./obj/local/armeabi-v7a/libpc_ardrone.a(ardrone_control.o)
                0x000469a8                ardrone_control_read
                0x000469f4                ardrone_control_write
                0x00046a30                ardrone_control_send_event
                0x00046a94                ardrone_control_resume_on_navdata_received
                0x00046ae8                ardrone_control_shutdown
                0x00046b10                ardrone_control_connect_to_drone
                0x00046b98                thread_ardrone_control
                0x00046e48                ardrone_control_init
 .text          0x00046ebc       0x48 ./obj/local/armeabi-v7a/libpc_ardrone.a(ardrone_navdata_control.o)
                0x00046ebc                ardrone_navdata_control_init
                0x00046ed4                ardrone_navdata_control_release
                0x00046eec                ardrone_navdata_control_process
 .text          0x00046f04      0x5fc ./obj/local/armeabi-v7a/libpc_ardrone.a(ardrone_navdata_client.o)
                0x00046f04                ardrone_navdata_open_server
                0x00046f70                ardrone_navdata_client_get_num_retries
                0x00046f94                ardrone_navdata_client_shutdown
                0x00046fe0                ardrone_navdata_client_resume
                0x0004702c                ardrone_navdata_client_suspend
                0x00047070                thread_navdata_update
                0x00047490                ardrone_navdata_client_init
 .text          0x00047500     0x1d94 ./obj/local/armeabi-v7a/libpc_ardrone.a(iniparser.o)
                0x00047500                iniparser_getnsec
                0x0004756c                iniparser_getsecname
                0x000475fc                iniparser_freedict
                0x00047610                strlwc
                0x000477bc                iniparser_unset
                0x00047818                iniparser_getboolean
                0x000478a4                iniparser_getstring
                0x000478c4                iniparser_find_entry
                0x000478e0                iniparser_getdouble
                0x00047970                iniparser_getint
                0x000479b0                iniparser_val2ptr
                0x00047b7c                iniparser_setstring_a4
                0x00047bf8                iniparser_setstring
                0x00047c10                iniparser_load
                0x00048254                iniparser_vals2ptrs
                0x0004831c                iniparser_dump
                0x000486ac                iniparser_ptr2val
                0x00048994                iniparser_alias_ex
                0x00048b4c                iniparser_alias
                0x00048b7c                iniparser_dump_ini_a4
                0x00049198                iniparser_dump_ini_a3
                0x000491b0                iniparser_dump_ini
                0x000491cc                iniparser_ptrs2vals
 .text          0x00049294      0x6b4 ./obj/local/armeabi-v7a/libpc_ardrone.a(dictionary.o)
                0x00049294                dictionary_dump
                0x00049358                dictionary_del
                0x00049420                dictionary_hash
                0x00049470                dictionary_unset
                0x00049560                dictionary_get
                0x00049620                dictionary_set
                0x000498a8                dictionary_new
 .text          0x00049948      0x79c ./obj/local/armeabi-v7a/libpc_ardrone.a(navdata.o)
                0x00049948                ardrone_navdata_compute_cks
                0x00049988                ardrone_navdata_search_option
                0x000499b8                ardrone_navdata_unpack_all
 .text          0x0004a0e4       0x88 ./obj/local/armeabi-v7a/libpc_ardrone.a(config_keys.o)
                0x0004a0e4                configuration_check_config_id_char
                0x0004a120                configuration_check_config_id
 .text          0x0004a16c      0x248 ./obj/local/armeabi-v7a/libpc_ardrone.a(ardrone_time.o)
                0x0004a16c                ardrone_timer_elapsed_ms
                0x0004a1c0                ardrone_timer_elapsed_us
                0x0004a204                ardrone_timer_update
                0x0004a284                ardrone_timer_delta_us
                0x0004a300                ardrone_timer_delta_ms
                0x0004a37c                ardrone_timer_reset
 .text          0x0004a3b4       0xdc ./obj/local/armeabi-v7a/libpc_ardrone.a(ardrone_date.o)
                0x0004a3b4                ardrone_date2time
                0x0004a414                ardrone_time2date
 .text          0x0004a490      0x1bc ./obj/local/armeabi-v7a/libpc_ardrone.a(ardrone_gen_ids.o)
                0x0004a490                ardrone_gen_sessionid
                0x0004a524                ardrone_gen_usrid
                0x0004a584                ardrone_gen_appid
 .text          0x0004a64c      0x830 ./obj/local/armeabi-v7a/libpc_ardrone.a(video_stage_tcp.o)
                0x0004a64c                video_stage_tcp_close
                0x0004a678                video_stage_tcp_dumpPave
                0x0004a84c                video_stage_tcp_open
                0x0004a8f4                video_stage_tcp_transform
 .text          0x0004ae7c      0x6d0 ./obj/local/armeabi-v7a/libpc_ardrone.a(video_stage_merge_slices.o)
                0x0004ae7c                video_stage_merge_slices_handle
                0x0004ae94                video_stage_merge_slices_close
                0x0004aef8                video_stage_merge_slices_reset
                0x0004af58                video_stage_merge_slices_transform
                0x0004b4d4                video_stage_merge_slices_open
 .text          0x0004b54c      0x7d0 ./obj/local/armeabi-v7a/libpc_ardrone.a(video_stage_decoder.o)
                0x0004b54c                checkNeonSupport
                0x0004b5fc                mp4h264_close
                0x0004b658                mp4h264_transform
                0x0004b6c4                mp4h264_open
                0x0004b720                video_stage_decoder_close
                0x0004b784                video_stage_decoder_open
                0x0004b974                video_stage_decoder_transform
 .text          0x0004bd1c      0xd70 ./obj/local/armeabi-v7a/libpc_ardrone.a(academy_download.o)
                0x0004bd1c                academy_download_resume
                0x0004bd54                academy_download_pause
                0x0004bde4                thread_academy_download
                0x0004c9f8                academy_download_shutdown
                0x0004ca30                academy_download_init
 .text          0x0004ca8c      0x790 ./obj/local/armeabi-v7a/libpc_ardrone.a(ardrone_control_configuration.o)
                0x0004ca8c                ardrone_control_reset_custom_configurations_list
                0x0004cacc                ardrone_control_read_custom_configurations_list
                0x0004ce50                ardrone_control_configuration_run
 .text          0x0004d21c       0x74 ./obj/local/armeabi-v7a/libpc_ardrone.a(ardrone_control_ack.o)
                0x0004d21c                ardrone_control_ack_run
 .text          0x0004d290      0x124 ./obj/local/armeabi-v7a/libpc_ardrone.a(ardrone_crc_32.o)
                0x0004d290                ardrone_make_crc_table
                0x0004d310                ardrone_update_crc
                0x0004d394                ardrone_crc_32
 .text          0x0004d3b4      0x2b8 ./obj/local/armeabi-v7a/libpc_ardrone.a(video_encapsulation.o)
                0x0004d3b4                init_parrot_video_encapsulation_header
                0x0004d3f4                pave_is_same_frame
                0x0004d484                dumpPave
 .text          0x0004d66c      0x87c ./obj/local/armeabi-v7a/libpc_ardrone.a(video_stage_ffmpeg_decoder.o)
                0x0004d66c                empty_av_log_callback
                0x0004d680                ffmpeg_stage_decoding_close
                0x0004d74c                ffmpeg_stage_decoding_transform
                0x0004dc50                ffmpeg_stage_decoding_open
 .text          0x0004dee8      0xcdc ./obj/local/armeabi-v7a/libpc_ardrone.a(video_stage_ittiam_decoder.o)
                0x0004dee8                ittiam_stage_decoding_open
                0x0004df00                ittiam_stage_decoding_close
                0x0004e02c                ITTIAM_dumpPave
                0x0004e1bc                ittiam_stage_decoding_transform
 .text          0x0004ebc4      0x34c ./obj/local/armeabi-v7a/libvlib.a(vlib_stage_decode.o)
                0x0004ebc4                vlib_stage_decoding_close
                0x0004ec0c                vlib_stage_decoding_transform
                0x0004ee9c                vlib_stage_decoding_open
 .text          0x0004ef10      0x5c0 ./obj/local/armeabi-v7a/libvlib.a(video_codec.o)
                0x0004ef10                video_encode_picture
                0x0004f320                video_codec_type_select
                0x0004f3a4                video_decode_blockline
                0x0004f3f4                video_decode_picture
                0x0004f4a0                video_codec_open
                0x0004f4b8                video_codec_close
 .text          0x0004f4d0      0x2d8 ./obj/local/armeabi-v7a/libvlib.a(video_controller.o)
                0x0004f4d0                video_controller_update
                0x0004f51c                video_controller_set_mode
                0x0004f538                video_controller_set_bitrate
                0x0004f554                video_controller_set_target_size
                0x0004f570                video_controller_set_picture_type
                0x0004f58c                video_controller_set_motion_estimation
                0x0004f5a8                video_controller_set_format
                0x0004f758                video_controller_cleanup
 .text          0x0004f7a8      0x2e0 ./obj/local/armeabi-v7a/libvlib.a(video_packetizer.o)
                0x0004f7a8                video_cache_stream
                0x0004f7c0                video_write_data
                0x0004f864                video_stuff8
                0x0004f898                video_read_data
                0x0004f940                video_peek_data
                0x0004f9bc                video_align8
                0x0004fa00                video_packetizer_close
                0x0004fa40                video_packetizer_init
 .text          0x0004fa88      0x460 ./obj/local/armeabi-v7a/libvlib.a(video_quantizer.o)
                0x0004fa88                video_quantizer_init
                0x0004fae0                video_quantizer_update
                0x0004fb38                do_quantize_intra_mb
                0x0004fbe4                do_quantize_inter_mb
                0x0004fc60                video_quantize
                0x0004fd74                do_unquantize
                0x0004fdc4                video_unquantize
 .text          0x0004fee8      0x7d4 ./obj/local/armeabi-v7a/libvlib.a(p263_codec.o)
                0x0004fee8                p263_encode_blockline
                0x0004ff00                p263_update
                0x0004ff18                p263_cache
                0x00050120                p263_packet
                0x0005021c                p263_decode_blockline
                0x00050534                p263_codec_free
                0x0005054c                p263_codec_alloc
 .text          0x000506bc        0x0 ./obj/local/armeabi-v7a/libvlib.a(p263_huffman.o)
 .text          0x000506bc      0x3a0 ./obj/local/armeabi-v7a/libvlib.a(p263_mb_layer.o)
                0x00050864                p263_read_mb_layer
 .text          0x00050a5c       0x88 ./obj/local/armeabi-v7a/libvlib.a(p263_gob_layer.o)
                0x00050a5c                p263_read_gob_layer
 .text          0x00050ae4      0x41c ./obj/local/armeabi-v7a/libvlib.a(p263_picture_layer.o)
                0x00050ae4                p263_read_picture_layer
 .text          0x00050f00      0xef0 ./obj/local/armeabi-v7a/libvlib.a(p264_codec.o)
                0x00050f00                p264_update
                0x00050f18                p264_cache
                0x00051100                p264_pack_controller
                0x00051178                p264_encode_blockline
                0x00051488                p264_codec_free
                0x000514d4                p264_realloc_ref
                0x00051638                p264_unpack_controller
                0x00051750                p264_decode_blockline
                0x00051d80                p264_codec_alloc
 .text          0x00051df0       0x3c ./obj/local/armeabi-v7a/libvlib.a(p264_gob_layer.o)
                0x00051df0                p264_read_gob_layer
                0x00051e10                p264_write_gob_layer
 .text          0x00051e2c     0x1208 ./obj/local/armeabi-v7a/libvlib.a(p264_mb_layer.o)
                0x00051e2c                make_boundary_pred
                0x00051e70                p264_read_intra_4x4
                0x00052660                p264_write_intra_4x4
                0x000526a4                p264_read_block
                0x0005274c                p264_write_block
                0x000527f0                p264_write_mb_layer
                0x00052afc                p264_read_mv
                0x00052d3c                p264_read_mb_layer
 .text          0x00053034      0x194 ./obj/local/armeabi-v7a/libvlib.a(p264_picture_layer.o)
                0x00053034                p264_read_picture_layer
                0x00053118                p264_write_picture_layer
 .text          0x000531c8     0x1244 ./obj/local/armeabi-v7a/libvlib.a(video_p264.o)
                0x000531c8                video_p264_prepare_slice
                0x000531e0                video_p264_encode_MB
                0x000531f8                video_p264_get_encoded_MB
                0x00053210                print_MB_DCT
                0x000539c0                mat_printf_8x8_inside_picture
                0x00053ab4                mat_printf_16x16_inside_picture
                0x00053ba8                mat_printf_4x4
                0x00053c84                mat_printf_2x2
                0x00053d60                video_p264_decode_inter_chroma_MB
                0x00053f64                video_p264_decode_inter_luma_MB
                0x00054088                video_p264_decode_intra_chroma_8x8_MB
                0x00054240                video_p264_decode_intra_luma_16x16_MB
                0x00054334                video_p264_decode_intra_luma_4x4_MB
 .text          0x0005440c      0xb44 ./obj/local/armeabi-v7a/libvlib.a(uvlc_codec.o)
                0x0005440c                uvlc_update
                0x00054424                uvlc_cache
                0x0005460c                uvlc_unpack_controller
                0x000546e8                uvlc_decode_blockline
                0x00054a50                uvlc_pack_controller
                0x00054ac8                uvlc_encode_blockline
                0x00054ea4                uvlc_codec_free
                0x00054ecc                uvlc_codec_alloc
 .text          0x00054f50       0x3c ./obj/local/armeabi-v7a/libvlib.a(uvlc_gob_layer.o)
                0x00054f50                uvlc_read_gob_layer
                0x00054f70                uvlc_write_gob_layer
 .text          0x00054f8c      0x43c ./obj/local/armeabi-v7a/libvlib.a(uvlc_mb_layer.o)
                0x00054f8c                uvlc_read_block
                0x0005505c                uvlc_read_mb_layer
                0x000551e0                uvlc_write_block
                0x0005525c                uvlc_write_mb_layer
 .text          0x000553c8      0x194 ./obj/local/armeabi-v7a/libvlib.a(uvlc_picture_layer.o)
                0x000553c8                uvlc_read_picture_layer
                0x000554ac                uvlc_write_picture_layer
 .text          0x0005555c       0x7c ./obj/local/armeabi-v7a/libvlib.a(video_utils.o)
                0x0005555c                video_utils_init
                0x0005558c                video_utils_close
                0x000555c0                video_utils_set_format
 .text          0x000555d8       0xc0 ./obj/local/armeabi-v7a/libvlib.a(video_mem32.o)
                0x000555d8                video_zeromem32
                0x00055608                video_copy32
                0x00055648                video_copy32_swap
 .text          0x00055698      0xac4 ./obj/local/armeabi-v7a/libvlib.a(video_dct.o)
                0x00055698                fdct
                0x00055b3c                idct
                0x0005604c                video_fdct_compute
                0x000560d4                video_idct_compute
 .text          0x0005615c      0x3ac ./obj/local/armeabi-v7a/libvlib.a(video_huffman.o)
                0x0005615c                huffman_add_codes
                0x000562f0                huffman_sort_codes
                0x00056384                huffman_check_code
                0x00056408                huffman_stream_code
                0x000564cc                huffman_free
                0x000564e0                huffman_alloc
 .text          0x00056508        0x0 ./obj/local/armeabi-v7a/libvlib.a(video_macroblock.o)
 .text          0x00056508     0x1ffc ./obj/local/armeabi-v7a/libvlib.a(video_picture.o)
                0x00056508                video_blockline_from_blockline
                0x00056e64                video_blockline_from_macro_blocks
                0x00058400                video_blockline_to_macro_blocks
 .text          0x00058504       0x3c ./obj/local/armeabi-v7a/libvlib.a(p264_zigzag.o)
                0x00058504                zagzig_4x4
 .text          0x00058540      0x2e8 ./obj/local/armeabi-v7a/libvlib.a(p264_transform.o)
                0x00058540                p264_hadamard_2x2
                0x000585d4                p264_ihadamard_4x4
                0x000586f4                p264_inverse_4x4
 .text          0x00058828      0x1fc ./obj/local/armeabi-v7a/libvlib.a(p264_Qp.o)
                0x00058828                p264_4x4_residual_scale
                0x00058888                p264_2x2_chromaDC_scale
                0x00058968                p264_4x4_lumaDC_scale
 .text          0x00058a24     0x1dbc ./obj/local/armeabi-v7a/libvlib.a(p264_intra_pred.o)
                0x00058bfc                p264_intra_4x4_luma
                0x00059d44                p264_intra_8x8_chroma
                0x0005a2e0                p264_intra_16x16_luma
 .text          0x0005a7e0      0x7b0 ./obj/local/armeabi-v7a/libvlib.a(p264_inter_mc.o)
                0x0005a8b8                p264_inter_mc_chroma
                0x0005ae04                p264_inter_mc_luma
 .text          0x0005af90      0x11c ./obj/local/armeabi-v7a/libvlib.a(p264_merge.o)
                0x0005af90                p264_merge_4x4
 .text          0x0005b0ac      0x2cc ./obj/local/armeabi-v7a/libvlib.a(p264.o)
                0x0005b0ac                p264_decode
                0x0005b1a4                p264_decode_int
                0x0005b244                p264_encode
                0x0005b2f4                p264_encode_int
 .text          0x0005b378      0x1a8 ./obj/local/armeabi-v7a/libvlib.a(uvlc.o)
                0x0005b378                uvlc_decode
                0x0005b470                uvlc_encode
 .text          0x0005b520      0x188 ./obj/local/armeabi-v7a/libsdk.a(vp_os_malloc.o)
                0x0005b520                vp_os_realloc
                0x0005b534                vp_os_sfree
                0x0005b554                vp_os_free
                0x0005b568                vp_os_aligned_free
                0x0005b584                vp_os_malloc_no_assert
                0x0005b598                vp_os_malloc
                0x0005b5ac                vp_os_aligned_malloc
                0x0005b610                vp_os_aligned_realloc
                0x0005b694                vp_os_calloc
 .text          0x0005b6a8      0x394 ./obj/local/armeabi-v7a/libsdk.a(vp_api.o)
                0x0005b6a8                vp_api_close
                0x0005b724                vp_api_run
                0x0005b8b0                vp_api_flush
                0x0005b8f8                vp_api_open
 .text          0x0005ba3c      0x3e8 ./obj/local/armeabi-v7a/libsdk.a(vp_api_supervisor.o)
                0x0005ba3c                vp_api_add_pipeline
                0x0005bab4                vp_api_remove_pipeline
                0x0005baec                vp_api_get_pipeline
                0x0005bb10                vp_api_handle_messages
                0x0005bcec                vp_api_post_message
 .text          0x0005be24      0x33c ./obj/local/armeabi-v7a/libsdk.a(vp_api_thread_helper.o)
                0x0005be24                vp_api_get_thread_idx_tab_by_handle
                0x0005be84                vp_api_get_thread_handle
                0x0005bea8                vp_api_suspend_all_threads_tab
                0x0005bf08                vp_api_suspend_thread
                0x0005bf38                vp_api_resume_thread
                0x0005bf68                vp_api_change_thread_prio_tab
                0x0005bf9c                vp_api_join_thread_tab
                0x0005bfcc                vp_api_start_thread_tab
                0x0005c054                vp_api_start_all_threads_tab
                0x0005c0e0                vp_api_get_thread_idx_tab_by_name
 .text          0x0005c160     0x139c ./obj/local/armeabi-v7a/libsdk.a(ATcodec_api.o)
                0x0005c160                at_default_cb
                0x0005c178                ATcodec_Set_Reading_Mode
                0x0005c1a4                ATcodec_Shutdown_Library_Tree
                0x0005c1cc                ATcodec_Shutdown_Library
                0x0005c1f0                ATcodec_exit_thread
                0x0005c218                thread_ATcodec_Commands_Client
                0x0005c384                ATcodec_Send_Messages
                0x0005c454                ATcodec_Queue_Message_params_Tree
                0x0005c5d8                ATcodec_Queue_Message_params
                0x0005c794                ATcodec_Queue_Message_valist_Tree
                0x0005c7c8                ATcodec_Queue_Message_valist
                0x0005c80c                ATcodec_Init_Library_Tree
                0x0005c890                ATcodec_Init_Library
                0x0005c8b8                ATcodec_Add_Hashed_Message_Tree
                0x0005cacc                ATcodec_Add_Defined_Message_Tree
                0x0005caf4                ATcodec_Add_Defined_Message
                0x0005cb1c                ATcodec_Add_Hashed_Message
                0x0005cf20                thread_ATcodec_Commands_Server
 .text          0x0005d4fc      0x524 ./obj/local/armeabi-v7a/libsdk.a(vp_com.o)
                0x0005d4fc                vp_com_cmp_address
                0x0005d53c                vp_com_network_adapter_lookup
                0x0005d554                vp_com_local_config
                0x0005d58c                vp_com_inquire
                0x0005d5ac                vp_com_get_rssi
                0x0005d5f0                vp_com_wait_connections
                0x0005d60c                vp_com_sockopt
                0x0005d644                vp_com_close
                0x0005d694                vp_com_open
                0x0005d704                vp_com_disconnect
                0x0005d774                vp_com_connect
                0x0005d80c                vp_com_copy_address
                0x0005d830                vp_com_shutdown
                0x0005d890                vp_com_init
 .text          0x0005da20       0x40 ./obj/local/armeabi-v7a/libsdk.a(vp_com_error.o)
                0x0005da20                vp_com_formatMessage
 .text          0x0005da60      0x15c ./obj/local/armeabi-v7a/libsdk.a(vp_os_signal.o)
                0x0005da60                vp_os_cond_broadcast
                0x0005da74                vp_os_cond_signal
                0x0005da88                vp_os_cond_timed_wait
                0x0005db04                vp_os_cond_wait
                0x0005db1c                vp_os_cond_destroy
                0x0005db30                vp_os_cond_init
                0x0005db50                vp_os_mutex_unlock
                0x0005db64                vp_os_mutex_trylock
                0x0005db7c                vp_os_mutex_lock
                0x0005db90                vp_os_mutex_destroy
                0x0005dba4                vp_os_mutex_init
 .text          0x0005dbbc       0x30 ./obj/local/armeabi-v7a/libsdk.a(vp_os_delay.o)
                0x0005dbbc                vp_os_delay_us
                0x0005dbd0                vp_os_delay
 .text          0x0005dbec      0x4bc ./obj/local/armeabi-v7a/libsdk.a(vp_os_thread.o)
                0x0005dc9c                vp_os_thread_priority
                0x0005dd34                vp_os_thread_yield
                0x0005dd48                vp_os_thread_resume
                0x0005ddb0                vp_os_thread_suspend
                0x0005de18                vp_os_thread_self
                0x0005de2c                vp_os_thread_join
                0x0005deb4                vp_os_thread_create
 .text          0x0005e0a8      0x124 ./obj/local/armeabi-v7a/libsdk.a(vp_com_wifi.o)
                0x0005e0a8                vp_com_wf_init
                0x0005e0c0                vp_com_wf_shutdown
                0x0005e0d8                vp_com_wf_network_adapter_lookup
                0x0005e0f0                vp_com_wf_inquire
                0x0005e108                vp_com_wf_connect
                0x0005e120                vp_com_wf_disconnect
                0x0005e138                vp_com_wf_get_rssi
                0x0005e150                vp_com_wf_close
                0x0005e164                vp_com_wf_open
                0x0005e184                vp_com_wf_wait_connections
                0x0005e1a4                vp_com_wf_local_config
 .text          0x0005e1cc      0xfd8 ./obj/local/armeabi-v7a/libsdk.a(vp_com_socket.o)
                0x0005e1cc                vp_com_timed_wait_for_server_up
                0x0005e220                vp_com_wait_for_server_up
                0x0005e264                vp_com_init_server
                0x0005e2a0                vp_com_write_socket
                0x0005e314                vp_com_read_socket
                0x0005e39c                vp_com_write_udp_socket
                0x0005e568                vp_com_make_udp_target
                0x0005e5a4                vp_com_read_udp_socket
                0x0005e748                vp_com_sockopt_ip
                0x0005e904                vp_com_wait_socket
                0x0005e9d0                vp_com_close_socket
                0x0005ea00                vp_com_open_socket
                0x0005ed7c                thread_vp_com_server
 .text          0x0005f1a4      0x504 ./obj/local/armeabi-v7a/libsdk.a(vp_com_socket_utils.o)
                0x0005f1a4                vp_com_fill_read_fs
                0x0005f200                vp_com_client_receive
                0x0005f4d0                vp_com_close_client_sockets
                0x0005f570                vp_com_client_open_socket
 .text          0x0005f6a8      0x354 ./obj/local/armeabi-v7a/libsdk.a(vp_com_config_itf.o)
                0x0005f90c                vp_com_config_itf
 .text          0x0005f9fc      0x118 ./obj/local/armeabi-v7a/libsdk.a(vp_os_error_handling.o)
                0x0005f9fc                vp_os_install_error_handler
                0x0005fa58                vp_os_get_error_message
 .text          0x0005fb14      0x324 ./obj/local/armeabi-v7a/libsdk.a(ATcodec_Memory.o)
                0x0005fb58                ATcodec_Memory_Init
                0x0005fbb4                ATcodec_Memory_Put_Char
                0x0005fbd0                ATcodec_Memory_Put_String
                0x0005fc0c                ATcodec_Memory_Raw_Put_Int
                0x0005fc54                ATcodec_Memory_Str_Put_Int
                0x0005fd0c                ATcodec_Memory_Get_Char
                0x0005fd28                ATcodec_Memory_Unget_Char
                0x0005fd4c                ATcodec_Memory_Get_String
                0x0005fd7c                ATcodec_Memory_Raw_Get_Int
                0x0005fdc4                ATcodec_Memory_Str_Get_Int
 .text          0x0005fe38      0x26c ./obj/local/armeabi-v7a/libsdk.a(ATcodec_Buffer.o)
                0x0005fe38                ATcodec_Buffer_justPopElement
                0x0005fe6c                ATcodec_Buffer_getElement
                0x0005fe8c                ATcodec_Buffer_topElement
                0x0005fea4                ATcodec_Buffer_destroy
                0x0005fed4                ATcodec_Buffer_pushElements
                0x0005ffa4                ATcodec_Buffer_pushElement
                0x00060030                ATcodec_Buffer_popElement
                0x00060070                ATcodec_Buffer_init
 .text          0x000600a4      0xd60 ./obj/local/armeabi-v7a/libsdk.a(ATcodec.o)
                0x00060100                ATCodec_common_sprintf
                0x0006054c                vp_atcodec_sprintf_params
                0x00060574                vp_atcodec_sprintf_valist
                0x000605f0                vp_atcodec_sscanf
 .text          0x00060e04      0x488 ./obj/local/armeabi-v7a/libsdk.a(ATcodec_Tree.o)
                0x00060e04                ATcodec_Tree_Node_print
                0x00060e18                ATcodec_Tree_print
                0x00060e2c                ATcodec_Tree_Node_get
                0x00060e44                ATcodec_Tree_init
                0x00060f64                ATcodec_Tree_insert
 .text          0x0006128c      0x8e0 ./obj/local/armeabi-v7a/h264_dec_lib.a(decoder_api_main.rel.rvds.o)
                0x0006128c                ih264d_cxa8_api_function
 .text          0x00061b6c     0x11fc ./obj/local/armeabi-v7a/h264_dec_lib.a(h264dec_ittiam_api_define.rel.rvds.o)
                0x00061b6c                copy_op_frm_to_buf
                0x00061c94                itt_api_h264_get_num_rec
                0x00061ce8                itt_api_h264_fill_num_mem_rec
                0x00061f6c                itt_api_h264_dec_clr
                0x00062014                itt_api_h264_dec_init
                0x00062078                Map_Error
                0x000621c0                itt_api_h264_dec_video_decode
                0x00062658                itt_api_h264_dec_get_version
                0x000627e4                itt_api_h264_dec_get_display_frame
                0x0006280c                itt_api_h264_dec_set_flush_mode
                0x00062840                itt_api_h264_dec_get_status
                0x00062960                itt_api_h264_dec_get_buf_info
                0x00062a60                itt_api_h264_dec_set_params
                0x00062b74                itt_api_h264_dec_set_default_params
                0x00062bbc                itt_api_h264_dec_reset
                0x00062bf4                itt_api_h264_dec_ctl
                0x00062cf0                itt_api_h264_dec_rel_disp_buff
 .text          0x00062d68      0x9ec ./obj/local/armeabi-v7a/h264_dec_lib.a(cncl.rel.rvds.o)
                0x00062d68                itt_api_cncl_get_num_rec
                0x00062d78                itt_api_cncl_fill_num_mem_rec
                0x00062db8                itt_api_cncl_init
                0x00062e0c                itt_api_cncl_clr
                0x00062e50                conceal_interlaced
                0x0006326c                icncl_apply_concealment
                0x000634dc                icncl_get_mb_range
                0x0006363c                itt_api_cncl_process
                0x000636e0                icncl_api_function
 .text          0x00063754      0x3e8 ./obj/local/armeabi-v7a/h264_dec_lib.a(bufapi_ittiam_ialg.rel.rvds.o)
                0x00063754                BUFAPI_ITTIAM_alloc
                0x00063784                BUFAPI_ITTIAM_numAlloc
                0x0006378c                BUFAPI_ITTIAM_exit
                0x00063790                BUFAPI_ITTIAM_init
                0x00063794                BUFAPI_ITTIAM_initObj
                0x00063858                BUFAPI_ITTIAM_control
                0x00063ae0                BUFAPI_ITTIAM_export_lib_ver
 .text          0x00063b3c      0x608 ./obj/local/armeabi-v7a/h264_dec_lib.a(bufferAPI.rel.rvds.o)
                0x00063b3c                ReleaseBuf
                0x00063bb8                InitBuffer
                0x00063c38                ResetBuffer
                0x00063cb8                GetNextFreeBuf
                0x00063d60                release_disp_field
                0x00063e50                get_next_disp_field
                0x00063ef8                GetNextBufFromQ
                0x00063f48                GetNextDisplayBuf
                0x00063fb0                SetBufAsProduced
                0x00064010                set_field_as_produced
                0x000640c4                GetNumberofActiveBuffers
                0x000640cc                GetBufferbyID
                0x00064100                GetBufferStatusbyID
 .text          0x00064144      0xe18 ./obj/local/armeabi-v7a/h264_dec_lib.a(decInterface.rel.rvds.o)
                0x00064144                GetInitDecMemory
                0x00064248                FreeInitDecMemory
                0x00064250                fill_ext_g_table_ptrs
                0x0006425c                fill_int_g_table_ptrs
                0x000643b4                InitDecoder
                0x0006455c                H264InitVideoDecoder
                0x00064e84                H264VideoDecodeNalUnit
                0x00064ec4                H264VideoDecodeNalUnitSize
                0x00064f04                CloseDecoder
                0x00064f30                H264CloseVideoDecoder
 .text          0x00064f5c     0x19cc ./obj/local/armeabi-v7a/h264_dec_lib.a(decPicDelimitProc.rel.rvds.o)
                0x00064f5c                pad_frm_buff_vert
                0x000650c0                IsEndOfPic
                0x0006522c                DecodePicOrderCnt
                0x00065598                DoEndOfPicProcessing
                0x000656f8                get_dpb_size
                0x0006580c                get_dpb_size_new
                0x0006590c                max_possible_ref_pics
                0x00065974                is_sps_changed
                0x000659d4                init_dec_mb_grp
                0x00065acc                ReleaseDisplayBufs
                0x00065c00                InitPic
                0x00066064                fill_disp_buf
                0x00066118                get_next_display_field
                0x00066708                assignDisplaySeq
                0x00066828                assign_pic_num
 .text          0x00066928     0x1738 ./obj/local/armeabi-v7a/h264_dec_lib.a(decodeSlice.rel.rvds.o)
                0x00066928                FormPredWeightMatrix
                0x00066a1c                StartofPic
                0x00066f68                end_of_pic_dispbuf_mgr
                0x00067198                err_pic_dispbuf_mgr
                0x00067278                deblock_display
                0x0006729c                decoder_err_handler
                0x000672c8                EndofPic
                0x000674c0                parse_decode_slice
                0x00067e34                apply_concealment
 .text          0x00068060     0x13e8 ./obj/local/armeabi-v7a/h264_dec_lib.a(decodeUVLC.rel.rvds.o)
                0x00068060                FindOneinBitstream
                0x000680a8                get_uev
                0x00068134                get_sev
                0x000681c8                get_tev_range1
                0x000681f4                GetUVLC
                0x00068300                FindOneinBitstream_len
                0x0006836c                cavlc_4x4res_block_totalcoeff_1
                0x000684c8                cavlc_4x4res_block_totalcoeff_2to10
                0x00068890                cavlc_4x4res_block_totalcoeff_11to16
                0x00068c4c                rest_of_residual_cav_chroma_dc_block
                0x00068f8c                cavlc_parse4x4coeff_n0to7
                0x000690bc                cavlc_parse4x4coeff_n8
                0x00069174                cavlc_parse_chroma_dc
                0x0006932c                parse_pmb_ref_index_cavlc_range1
                0x00069380                parse_pmb_ref_index_cavlc
 .text          0x00069448     0x1a64 ./obj/local/armeabi-v7a/h264_dec_lib.a(dpbManager.rel.rvds.o)
                0x00069448                InitRefBufs
                0x0006951c                DelLTNode
                0x00069668                InsertLTNode
                0x00069780                InsertSTNode
                0x00069884                delete_gap_frm_mmco
                0x000699f8                DelSTNodeOrMakeLT
                0x00069c28                ResetRefBufs
                0x00069d04                UpdateDefaultIndexList
                0x00069dc8                Ref_idx_reordering
                0x0006a040                ReadMMCOCommands
                0x0006a188                delete_gap_frm_sliding
                0x0006a35c                DoMMCOBuffer
                0x0006aa68                ReleasePicsInDBP
                0x0006aae0                do_mmco_for_gaps
                0x0006acc8                free_node_from_dpb
 .text          0x0006aeac      0x104 ./obj/local/armeabi-v7a/h264_dec_lib.a(dpb_opt.rel.rvds.o)
                0x0006aeac                delete_nonref_nondisplay_pics
                0x0006af28                insert_pic_in_display_list
 .text          0x0006afb0      0x178 ./obj/local/armeabi-v7a/h264_dec_lib.a(errorhandler.rel.rvds.o)
                0x0006afb0                GlobalErrorHandler
                0x0006afc0                cal_mbx_mby_loc
 .text          0x0006b128      0x1f8 ./obj/local/armeabi-v7a/h264_dec_lib.a(gaps_in_frm.rel.rvds.o)
                0x0006b128                decode_gaps_in_frame_num
 .text          0x0006b320      0x9dc ./obj/local/armeabi-v7a/h264_dec_lib.a(memRequest.rel.rvds.o)
                0x0006b320                CreatePicBuffers
                0x0006b58c                GetMemoryDecParams
                0x0006bb7c                FreeMemoryDecParams
                0x0006bb84                CreateMVBank
 .text          0x0006bcfc      0x398 ./obj/local/armeabi-v7a/h264_dec_lib.a(memoryAPI.rel.rvds.o)
                0x0006bcfc                IttiamMalloc
                0x0006bd3c                ittiam_mallocIRAM
                0x0006bd7c                DecMemManager
 .text          0x0006c094      0x364 ./obj/local/armeabi-v7a/h264_dec_lib.a(nal.rel.rvds.o)
                0x0006c094                FindStartCode
                0x0006c130                GetNextNalUnit
                0x0006c1c8                ProcessNalUnit
                0x0006c37c                RBSPtoSODB
 .text          0x0006c3f8      0x440 ./obj/local/armeabi-v7a/h264_dec_lib.a(format_conv_to_422i.rel.rvds.o)
                0x0006c3f8                IH264D_CXA8_YUV420toRGB565
 .text          0x0006c838      0xe70 ./obj/local/armeabi-v7a/h264_dec_lib.a(arm_computeBS.rel.rvds.o)
                0x0006c838                fill_bs1_non16x16mb_pslice
                0x0006cb90                fill_bs1_non16x16mb_bslice
                0x0006d2d4                fill_bs1_16x16mb_pslice
                0x0006d3f0                fill_bs1_16x16mb_bslice
                0x0006d5dc                fill_bs2_horz_vert
 .text          0x0006d6a8       0xcc ./obj/local/armeabi-v7a/h264_dec_lib.a(arm_copyRef.rel.rvds.o)
                0x0006d6a8                copyRef_4
                0x0006d6dc                copyRef_8
                0x0006d710                copyRef_16
 .text          0x0006d774      0xefc ./obj/local/armeabi-v7a/h264_dec_lib.a(arm_doIntraPredNon4x4.rel.rvds.o)
                0x0006d774                DoIntraPredChroma_VERT
                0x0006d7cc                DoIntraPredChroma_HORIZ
                0x0006d8a0                DoIntraPredChroma_PLANE
                0x0006dabc                DoIntraPredChroma_DC_DEFAULT
                0x0006db10                DoIntraPredChroma_DC_UL
                0x0006dbac                DoIntraPredChroma_DC_LL
                0x0006dc50                DoIntraPredChroma_DC_UL_LL
                0x0006dd30                DoIntraPredChroma_DC_TOP
                0x0006dda4                DoIntraPredChroma_DC_TOP_UL
                0x0006de70                DoIntraPredChroma_DC_TOP_LL
                0x0006df44                DoIntraPredChroma_DC_TOP_UL_LL
                0x0006e050                DoIntraPred16x16_VERT
                0x0006e0a0                DoIntraPred16x16_HORIZ
                0x0006e174                DoIntraPred16x16_DC_TOP_LEFT
                0x0006e268                DoIntraPred16x16_DC_LEFT
                0x0006e344                DoIntraPred16x16_DC_TOP
                0x0006e3ac                DoIntraPred16x16_DC_DEFAULT
                0x0006e3fc                DoIntraPred16x16_PLANE
 .text          0x0006e670      0x2fc ./obj/local/armeabi-v7a/h264_dec_lib.a(arm_interpolateChroma.rel.rvds.o)
                0x0006e670                interpolateChroma_2
                0x0006e744                interpolateChroma_4
                0x0006e818                interpolateChroma_8
 .text          0x0006e96c      0x174 ./obj/local/armeabi-v7a/h264_dec_lib.a(arm_rep_mv_colz.rel.rvds.o)
                0x0006e96c                rep_mv_colz_1x1
                0x0006e980                rep_mv_colz_1x2
                0x0006e9a0                rep_mv_colz_2x1
                0x0006e9c0                rep_mv_colz_2x2
                0x0006e9f0                rep_mv_colz_2x4
                0x0006ea38                rep_mv_colz_4x2
                0x0006ea7c                rep_mv_colz_full
 .text          0x0006eae0      0xb34 ./obj/local/armeabi-v7a/h264_dec_lib.a(arm_sixtapHVInterpolHPelGrid.rel.rvds.o)
                0x0006eae0                sixtaphv_intpolhpel_4
                0x0006ed7c                sixtaphv_intpolhpel_8
                0x0006f060                sixtaphv_intpolhpel_16
 .text          0x0006f614      0x410 ./obj/local/armeabi-v7a/h264_dec_lib.a(arm_sixtapHorizInterpolQsamp.rel.rvds.o)
                0x0006f614                sixtaphoriz_intqsamp_4
                0x0006f730                sixtaphoriz_intqsamp_8
                0x0006f844                sixtaphoriz_intqsamp_16
 .text          0x0006fa24      0x954 ./obj/local/armeabi-v7a/h264_dec_lib.a(arm_sixtapVHInterpolHPelGrid.rel.rvds.o)
                0x0006fa24                sixtapvh_intpolhpel_4
                0x0006fca0                sixtapvh_intpolhpel_8
                0x0006ff1c                sixtapvh_intpolhpel_16
 .text          0x00070378      0x620 ./obj/local/armeabi-v7a/h264_dec_lib.a(arm_sixtapVHInterpolQSamp.rel.rvds.o)
                0x00070378                sixtapvh_intqsamp_4
                0x0007051c                sixtapvh_intqsamp_8
                0x000706c0                sixtapvh_intqsamp_16
 .text          0x00070998      0x33c ./obj/local/armeabi-v7a/h264_dec_lib.a(arm_sixtapVertInterpolQsamp.rel.rvds.o)
                0x00070998                sixtapvert_intqsamp_4
                0x00070a8c                sixtapvert_intqsamp_8
                0x00070b78                sixtapvert_intqsamp_16
 .text          0x00070cd4      0x9b0 ./obj/local/armeabi-v7a/h264_dec_lib.a(arm_sixtapfilt2dHV.rel.rvds.o)
                0x00070cd4                sixtapfilt_2dhv_4
                0x00070f14                sixtapfilt_2dhv_8
                0x00071194                sixtapfilt_2dhv_16
 .text          0x00071684      0x388 ./obj/local/armeabi-v7a/h264_dec_lib.a(arm_sixtapfiltHoriz.rel.rvds.o)
                0x00071684                sixtapfilter_horiz_4
                0x00071770                sixtapfilter_horiz_8
                0x0007185c                sixtapfilter_horiz_16
 .text          0x00071a0c      0x2a8 ./obj/local/armeabi-v7a/h264_dec_lib.a(arm_sixtapfiltVert.rel.rvds.o)
                0x00071a0c                sixtapfilter_vert_4
                0x00071acc                sixtapfilter_vert_8
                0x00071b8c                sixtapfilter_vert_16
 .text          0x00071cb4      0x430 ./obj/local/armeabi-v7a/h264_dec_lib.a(arm_Padding.rel.rvds.o)
                0x00071cb4                HorizonPad
                0x00071d80                VertPadTop
                0x00071e24                VertPadBott
                0x00071ee4                pad_on_demand_CHROM_TOP
                0x00071f64                pad_on_demand_LUM_TOP
                0x00071fc8                pad_on_demand_CHROM_BOT
                0x0007206c                pad_on_demand_LUM_BOT
 .text          0x000720e4      0xc44 ./obj/local/armeabi-v7a/h264_dec_lib.a(arm_default_weighted_Pred.rel.rvds.o)
                0x000720e4                defaultWeightedPred_wid4
                0x00072158                defaultWeightedPred_wid8
                0x000721d8                defaultWeightedPred_wid16
                0x00072250                Weighted_Bi_Pred_wid16
                0x0007250c                Weighted_Bi_Pred_wid4
                0x000726f8                Weighted_Bi_Pred_wid8
                0x00072928                weightedPredYUV_wid16
                0x00072ac8                weightedPredYUV_wid8
                0x00072c08                weightedPredYUV_wid4
 .text          0x00072d28      0xc8a ./obj/local/armeabi-v7a/h264_dec_lib.a(arm_idct.rel.rvds.o)
                0x00072d28                arm_dequant_invtrans_add_pred_luma_inter
                0x00072fcc                arm_dequant_invtrans_add_pred_luma_intra_16x16
                0x000733b4                arm_dequant_invtrans_luma_intra4x4
                0x000735c4                arm_dequant_invtrans_add_pred_chroma_mod
                0x00073710                arm_dequant_invtrans_add_pred_chroma
                0x000738d0                arm_copy_mb_luma_to_rec
 *fill*         0x000739b2        0x2 00000000
 .text          0x000739b4     0x1048 ./obj/local/armeabi-v7a/h264_dec_lib.a(arm_intra4x4_mb.rel.rvds.o)
                0x000739b4                intra_4x4_mb
                0x00074334                DoIntraPred4x4_VERT
                0x0007438c                DoIntraPred4x4_HORIZ
                0x000743f0                DoIntraPred4x4_DC_NOLEFT
                0x00074474                DoIntraPred4x4_DC_USELEFT
                0x0007450c                DoIntraPred4x4_DIAG_DL_NOTOPR
                0x000745a4                DoIntraPred4x4_DIAG_DL_USETOPR
                0x0007462c                DoIntraPred4x4_DIAG_DR
                0x000746b4                DoIntraPred4x4_VERT_R
                0x00074758                DoIntraPred4x4_HORIZ_D
                0x0007480c                DoIntraPred4x4_VERT_L_NOTOPR
                0x000748b0                DoIntraPred4x4_VERT_L_USETOPR
                0x00074944                DoIntraPred4x4_HORIZ_U
 .text          0x000749fc      0x49c ./obj/local/armeabi-v7a/h264_dec_lib.a(MotionCompensate.rel.rvds.o)
                0x000749fc                formMbPartInfo_BP
                0x00074d90                MotionCompensate_BP
 .text          0x00074e98     0x1288 ./obj/local/armeabi-v7a/h264_dec_lib.a(ParseSyntax.rel.rvds.o)
                0x00074e98                cavlc_parse_8x8block_both_available
                0x00074fec                cavlc_parse_8x8block_left_available
                0x00075124                cavlc_parse_8x8block_top_available
                0x0007525c                cavlc_parse_8x8block_none_available
                0x0007537c                ParseResidual4x4Cavlc
                0x00075620                ParseIMbCavlc
                0x00075b08                parse_dec_i_pcm_mb
                0x00075c78                parse_islice_data_cavlc
 .text          0x00076120       0xe4 ./obj/local/armeabi-v7a/h264_dec_lib.a(decBitStream.rel.rvds.o)
                0x00076120                GetBit_h264
                0x00076148                GetBits_h264
                0x00076190                NextBits_h264
                0x000761d0                FlushBits_h264
                0x000761f0                check_byte_aligned
 .text          0x00076204      0x93c ./obj/local/armeabi-v7a/h264_dec_lib.a(decComputBS.rel.rvds.o)
                0x00076204                ComputeBSNonMbAff
                0x00076528                FillBsForMb
 .text          0x00076b40       0xf8 ./obj/local/armeabi-v7a/h264_dec_lib.a(decComputeQp.rel.rvds.o)
                0x00076b40                UpdateQp
 .text          0x00076c38     0x1420 ./obj/local/armeabi-v7a/h264_dec_lib.a(decDeblocking.rel.rvds.o)
                0x00076c38                FilterBoundaryLeft_nonmbaff
                0x00077000                FilterBoundaryTop_nonmbaff
                0x00077130                deblock_mb_BP_only
                0x000773b4                init_deblk_tfr_ctxt
                0x000774a4                DeblockPicture_Baselineonly
                0x00077790                SetDeblockingParameters
                0x00077800                FilterBoundaryLeft_mbaff
                0x00077bc0                FilterBoundaryTop_mbaff
                0x00077cf4                deblock_mb_mbaff
 .text          0x00078058      0xa68 ./obj/local/armeabi-v7a/h264_dec_lib.a(decHiLevSyntax.rel.rvds.o)
                0x00078058                DecodeSlicePartition
                0x00078060                DecodeSEI
                0x00078068                DecodeFillerData
                0x00078070                DecodeEndOfStream
                0x00078074                DecodePicParamSet
                0x000782bc                DecodeSeqParamSet
                0x00078894                DecodeEndOfSequence
                0x000788a4                access_unit_delimiter_rbsp
                0x000788e8                DecodeNalUnit
 .text          0x00078ac0      0x3b8 ./obj/local/armeabi-v7a/h264_dec_lib.a(decMotionVector.rel.rvds.o)
                0x00078ac0                NonMbaffMvPred
                0x00078ba8                mvpred_nonmbaff
                0x00078dc0                rep_mv_colz
 .text          0x00078e78      0x150 ./obj/local/armeabi-v7a/h264_dec_lib.a(decodeISlice.rel.rvds.o)
                0x00078e78                DecodeISlice
 .text          0x00078fc8       0x94 ./obj/local/armeabi-v7a/h264_dec_lib.a(decodeIntraMB.rel.rvds.o)
                0x00078fc8                ReadIntraPredModes
 .text          0x0007905c      0x5b0 ./obj/local/armeabi-v7a/h264_dec_lib.a(decodePSlice.rel.rvds.o)
                0x0007905c                InsertPicInRefPicListX
                0x00079064                init_ref_idx_lx_p
                0x00079258                DecodePSlice
 .text          0x0007960c      0x19c ./obj/local/armeabi-v7a/h264_dec_lib.a(decodeResidual.rel.rvds.o)
                0x0007960c                ItransRecLumaDC
 .text          0x000797a8      0x500 ./obj/local/armeabi-v7a/h264_dec_lib.a(sei.rel.rvds.o)
                0x000797a8                parse_buffering_period
                0x0007989c                parse_pic_timing
                0x00079954                parse_recovery_point
                0x000799b0                parse_sei_payload
                0x00079bd4                parse_sei_message
 .text          0x00079ca8       0x40 ./obj/local/armeabi-v7a/h264_dec_lib.a(utils.rel.rvds.o)
                0x00079ca8                GetNumBitsInValue
 .text          0x00079ce8      0x380 ./obj/local/armeabi-v7a/h264_dec_lib.a(vui.rel.rvds.o)
                0x00079ce8                parse_hrd_parametres
                0x00079dfc                parse_vui_parametres
 .text          0x0007a068       0x8c ./obj/local/armeabi-v7a/h264_dec_lib.a(arm_getMotionVectorPredictor.rel.rvds.o)
                0x0007a068                GetMotionVectorPredictor
 .text          0x0007a0f4      0x5e8 ./obj/local/armeabi-v7a/h264_dec_lib.a(arm_DeblkChroma.rel.rvds.o)
                0x0007a0f4                DeblkHorzChromaEdgeBs4
                0x0007a1a4                DeblkHorzEdgeChromaNonBs4
                0x0007a2a0                DeblkVertEdgeChromaNonBs4_single_cl
                0x0007a400                DeblkVertEdgeChromaBs4_single_cl
                0x0007a51c                DeblkVertEdgeChromaNonBs4_double_cl
                0x0007a618                DeblkVertEdgeChromaBs4_double_cl
 .text          0x0007a6dc      0xb90 ./obj/local/armeabi-v7a/h264_dec_lib.a(arm_DeblkLuma.rel.rvds.o)
                0x0007a6dc                DeblkHorzEdgeLumaNonBs4
                0x0007a84c                DeblkHorzLumaEdgeBs4
                0x0007aa04                DeblkVertEdgeLumaNonBs4_single_cl
                0x0007ac84                DeblkVertEdgeLumaBs4_single_cl
                0x0007af44                DeblkVertEdgeLumaNonBs4_double_cl
                0x0007b0e0                DeblkVertEdgeLumaBs4_double_cl
 .text          0x0007b26c     0x175c ./obj/local/armeabi-v7a/h264_dec_lib.a(ParsePSyntax.rel.rvds.o)
                0x0007b26c                DecodeInterMb
                0x0007b3c4                UpdateNnzForSkipMb
                0x0007b3f4                ParsePMbCavlc
                0x0007bbe8                MvPredAndRefTfrNby2MbP
                0x0007c184                DecodeAndReconTfrNMb
                0x0007c4b4                parse_inter_slice_data_cavlc
 .text          0x0007c9c8      0x260 ./obj/local/armeabi-v7a/h264_dec_lib.a(decMbUtils.rel.rvds.o)
                0x0007c9c8                get_mb_info_cavlc_nonmbaff
                0x0007cafc                TransferMbGroupData
 .text          0x0007cc28      0x6c8 ./obj/local/armeabi-v7a/h264_dec_lib.a(DecodeSyntax.rel.rvds.o)
                0x0007cc28                DecodeIntraMb
 .text          0x0007d2f0     0x24ac ./obj/local/armeabi-v7a/mpeg4_asp_dec_lib.a(decoder_api_main.o)
                0x0007d2f0                imp4d_cxa8_api_no_of_mem_rec_query
                0x0007d304                imp4d_cxa8_fill_mem_rec_struct
                0x0007d32c                imp4d_cxa8_fill_dec_ctxt_mem_rec
                0x0007d538                imp4d_cxa8_api_fill_mem_rec
                0x0007d578                imp4d_cxa8_init_dec_ctxt
                0x0007d6d0                imp4d_cxa8_reset_dec_ctxt
                0x0007d918                imp4d_cxa8_api_dec_init
                0x0007da88                imp4d_cxa8_mpeg4_dec_header
                0x0007db50                imp4d_cxa8_mpeg4_decode_frame
                0x0007dd60                imp4d_cxa8_frm_cpy_yuv420_buf
                0x0007de10                imp4d_cxa8_api_display_frame
                0x0007e200                imp4d_cxa8_fill_err_bit
                0x0007e424                imp4d_cxa8_api_dec_entity
                0x0007e864                imp4d_cxa8_api_dec_set_default
                0x0007e8b8                imp4d_cxa8_api_dec_get_status
                0x0007ea64                imp4d_cxa8_api_dec_set_params
                0x0007eaf0                imp4d_cxa8_api_dec_set_flush_mode
                0x0007eb10                imp4d_cxa8_api_dec_get_buf_info
                0x0007ec78                imp4d_cxa8_api_dec_reset
                0x0007ed28                imp4d_cxa8_api_get_version
                0x0007eeb0                imp4d_cxa8_api_dec_ctl
                0x0007f1b8                imp4d_cxa8_api_retrieve_mem_rec
                0x0007f294                imp4d_cxa8_api_check_struct_sanity
                0x0007f5e0                imp4d_cxa8_api_function
 .text          0x0007f79c       0xb8 ./obj/local/armeabi-v7a/mpeg4_asp_dec_lib.a(inv_ac_dc_pred.o)
                0x0007f79c                imp4d_cxa8_InitAcDcStructures
 .text          0x0007f854      0x384 ./obj/local/armeabi-v7a/mpeg4_asp_dec_lib.a(it_picbuf.o)
                0x0007f854                imp4d_cxa8_PicBufMgGetFree
                0x0007f894                imp4d_cxa8_PicBufMgAddPicToFreeQ
                0x0007f8c4                imp4d_cxa8_PicBufMgGetDisp
                0x0007f9cc                imp4d_cxa8_PicBufMgGetDec
                0x0007f9e0                imp4d_cxa8_PicBufMgAddPicToDispQ
                0x0007fa14                imp4d_cxa8_PicBufMgAddPic
 .text          0x0007fbd8      0x468 ./obj/local/armeabi-v7a/mpeg4_asp_dec_lib.a(mv_decode.o)
                0x0007fbd8                Mv_B
                0x0007fcb0                UpdateBank
                0x0007fcdc                imp4d_cxa8_ResetMVBankwhenIntraVop
                0x0007fdf4                imp4d_cxa8_UpdateMVPredictors
                0x0007fe20                imp4d_cxa8_GetMV_chrom_halfpel
                0x0007fecc                imp4d_cxa8_GetMV_chrom_qpel
 .text          0x00080040        0x8 ./obj/local/armeabi-v7a/mpeg4_asp_dec_lib.a(save_restore_cntx.o)
                0x00080040                imp4d_cxa8_size_of_stack_ctxt
 .text          0x00080048     0x1d94 ./obj/local/armeabi-v7a/mpeg4_asp_dec_lib.a(videobitstream.o)
                0x00080048                imp4d_cxa8_allocate_context_mem
                0x00080054                imp4d_cxa8_allocate_persistent_mem_to_struct
                0x000800ec                imp4d_cxa8_allocate_scratch_mem_to_struct
                0x000800f4                GobLayer
                0x000802c8                imp4d_cxa8_VideoPlaneWithShortHeader
                0x000808c4                imp4d_cxa8_define_vop_complexity_estimation_header
                0x00080b1c                imp4d_cxa8_DecodeVideoObjectLayer
                0x00081440                imp4d_cxa8_user_data
                0x000814a8                imp4d_cxa8_read_vop_complexity_estimation_header
                0x00081ce4                imp4d_cxa8_VisualObjectSequence
                0x00081cf0                imp4d_cxa8_video_signal_type
                0x00081d4c                imp4d_cxa8_VisualObject
 .text          0x00081ddc      0x440 ./obj/local/armeabi-v7a/mpeg4_asp_dec_lib.a(format_conv_to_422i.o)
                0x00081ddc                imp4d_cxa8_YUV420_RGB565
 .text          0x0008221c      0xd5c ./obj/local/armeabi-v7a/mpeg4_asp_dec_lib.a(basebitstream.o)
                0x0008221c                sprite_trajectory
                0x00082220                brightness_change_factor
                0x00082224                imp4d_cxa8_search_vop_start_code
                0x000822a8                imp4d_cxa8_VOPSwapLogic
                0x00082350                Init_VOP_Params
                0x0008252c                imp4d_cxa8_VideoPacketHeader
                0x000827bc                DataPartitionedMotionTextureDecode
                0x000827ec                imp4d_cxa8_DecodeVOP
                0x00082828                imp4d_cxa8_VideoObjectPlane
                0x00082ec8                imp4d_cxa8_Group_of_VideoObjectPlane
 .text          0x00082f78      0x208 ./obj/local/armeabi-v7a/mpeg4_asp_dec_lib.a(bitstream.o)
                0x00082f78                imp4d_cxa8_find_bytes_read
                0x00082f90                read_bs_to_internal_buf
                0x00082fe8                NextBits_with_skipbits
                0x00083050                imp4d_cxa8_StartOfBitPlane
                0x0008312c                imp4d_cxa8_Flush_to_byte_boundary
 .text          0x00083180      0x630 ./obj/local/armeabi-v7a/mpeg4_asp_dec_lib.a(decodeivop.o)
                0x00083180                imp4d_cxa8_DecodeIntraMBDataPartitioned
                0x00083268                imp4d_cxa8_DataPartitionedIVop
 .text          0x000837b0      0x7d0 ./obj/local/armeabi-v7a/mpeg4_asp_dec_lib.a(decodepvop.o)
                0x000837b0                DecodeInterMBDataPartitioned
                0x00083828                imp4d_cxa8_DataPartitionedPVop
 .text          0x00083f80        0x4 ./obj/local/armeabi-v7a/mpeg4_asp_dec_lib.a(global_error_hadler.o)
                0x00083f80                imp4d_cxa8_global_error_handler
 .text          0x00083f84      0x340 ./obj/local/armeabi-v7a/mpeg4_asp_dec_lib.a(idct.o)
                0x00083f84                imp4d_cxa8_dequant_idct_intra
                0x00084128                imp4d_cxa8_dequant_idct_inter_Q0
                0x000841d8                imp4d_cxa8_dequant_idct_inter_Q1
 .text          0x000842c4       0xe8 ./obj/local/armeabi-v7a/mpeg4_asp_dec_lib.a(interlace.o)
                0x000842c4                imp4d_cxa8_MotionCompensate_P_I
 .text          0x000843ac     0x1a14 ./obj/local/armeabi-v7a/mpeg4_asp_dec_lib.a(motioncompensate.o)
                0x000843ac                ApplyFilter
                0x00084810                imp4d_cxa8_GetQuarterPelVal
                0x00084908                imp4d_cxa8_ApplyFilterQuarterPel
                0x00084b4c                imp4d_cxa8_InterpolateFull_xFull_y
                0x00084bcc                imp4d_cxa8_InterpolateFull_xHalf_y
                0x00084c50                imp4d_cxa8_InterpolateHalf_xFull_y
                0x00084cc4                imp4d_cxa8_InterpolateHalf_xHalf_y
                0x00084d24                InterpolateBuffer
                0x00084d50                MotionCompensateForwAndBack
                0x000850f8                MotionCompensateForwAndBackQuarterPel
                0x00085928                imp4d_cxa8_MotionCompensateForwOrBackQuarterPel
                0x00085d18                imp4d_cxa8_MotionCompensate_P
                0x00085d48                imp4d_cxa8_MotionCompensate_B
 .text          0x00085dc0      0x190 ./obj/local/armeabi-v7a/mpeg4_asp_dec_lib.a(rvlc.o)
                0x00085dc0                imp4d_cxa8_RvlcTcoeff
 .text          0x00085f50       0x70 ./obj/local/armeabi-v7a/mpeg4_asp_dec_lib.a(vldecoder.o)
                0x00085f50                vld_tcoef
 .text          0x00085fc0       0x64 ./obj/local/armeabi-v7a/sys_utils.a(it_mem.o)
                0x00085ff4                it_mem_init
                0x00086018                it_sdram_malloc_aligned_cached
                0x00086020                it_sdram_free
 .text          0x00086024       0xc4 /home/n-brulez/dev/sdk/android-ndk-r7/toolchains/arm-linux-androideabi-4.4.3/prebuilt/linux-x86/bin/../lib/gcc/arm-linux-androideabi/4.4.3/libgcc.a(_udivsi3.o)
                0x00086024                __udivsi3
                0x00086024                __aeabi_uidiv
                0x000860d0                __aeabi_uidivmod
 .text          0x000860e8       0xf4 /home/n-brulez/dev/sdk/android-ndk-r7/toolchains/arm-linux-androideabi-4.4.3/prebuilt/linux-x86/bin/../lib/gcc/arm-linux-androideabi/4.4.3/libgcc.a(_divsi3.o)
                0x000860e8                __divsi3
                0x000860e8                __aeabi_idiv
                0x000861c4                __aeabi_idivmod
 .text          0x000861dc      0x3b8 /home/n-brulez/dev/sdk/android-ndk-r7/toolchains/arm-linux-androideabi-4.4.3/prebuilt/linux-x86/bin/../lib/gcc/arm-linux-androideabi/4.4.3/libgcc.a(_arm_addsubdf3.o)
                0x000861dc                __aeabi_drsub
                0x000861e4                __subdf3
                0x000861e4                __aeabi_dsub
                0x000861e8                __adddf3
                0x000861e8                __aeabi_dadd
                0x00086494                __aeabi_ui2d
                0x00086494                __floatunsidf
                0x000864b8                __floatsidf
                0x000864b8                __aeabi_i2d
                0x000864e0                __aeabi_f2d
                0x000864e0                __extendsfdf2
                0x00086520                __floatundidf
                0x00086520                __aeabi_ul2d
                0x00086534                __floatdidf
                0x00086534                __aeabi_l2d
 .text          0x00086594      0x470 /home/n-brulez/dev/sdk/android-ndk-r7/toolchains/arm-linux-androideabi-4.4.3/prebuilt/linux-x86/bin/../lib/gcc/arm-linux-androideabi/4.4.3/libgcc.a(_arm_muldivdf3.o)
                0x00086594                __muldf3
                0x00086594                __aeabi_dmul
                0x00086800                __divdf3
                0x00086800                __aeabi_ddiv
 .text          0x00086a04      0x12c /home/n-brulez/dev/sdk/android-ndk-r7/toolchains/arm-linux-androideabi-4.4.3/prebuilt/linux-x86/bin/../lib/gcc/arm-linux-androideabi/4.4.3/libgcc.a(_arm_cmpdf2.o)
                0x00086a04                __gtdf2
                0x00086a04                __gedf2
                0x00086a0c                __ltdf2
                0x00086a0c                __ledf2
                0x00086a14                __cmpdf2
                0x00086a14                __nedf2
                0x00086a14                __eqdf2
                0x00086a9c                __aeabi_cdrcmple
                0x00086ab8                __aeabi_cdcmple
                0x00086ab8                __aeabi_cdcmpeq
                0x00086acc                __aeabi_dcmpeq
                0x00086ae0                __aeabi_dcmplt
                0x00086af4                __aeabi_dcmple
                0x00086b08                __aeabi_dcmpge
                0x00086b1c                __aeabi_dcmpgt
 .text          0x00086b30       0x5c /home/n-brulez/dev/sdk/android-ndk-r7/toolchains/arm-linux-androideabi-4.4.3/prebuilt/linux-x86/bin/../lib/gcc/arm-linux-androideabi/4.4.3/libgcc.a(_arm_fixdfsi.o)
                0x00086b30                __fixdfsi
                0x00086b30                __aeabi_d2iz
 .text          0x00086b8c       0xa0 /home/n-brulez/dev/sdk/android-ndk-r7/toolchains/arm-linux-androideabi-4.4.3/prebuilt/linux-x86/bin/../lib/gcc/arm-linux-androideabi/4.4.3/libgcc.a(_arm_truncdfsf2.o)
                0x00086b8c                __aeabi_d2f
                0x00086b8c                __truncdfsf2
 .text          0x00086c2c      0x250 /home/n-brulez/dev/sdk/android-ndk-r7/toolchains/arm-linux-androideabi-4.4.3/prebuilt/linux-x86/bin/../lib/gcc/arm-linux-androideabi/4.4.3/libgcc.a(_arm_addsubsf3.o)
                0x00086c2c                __aeabi_frsub
                0x00086c34                __subsf3
                0x00086c34                __aeabi_fsub
                0x00086c38                __aeabi_fadd
                0x00086c38                __addsf3
                0x00086dc8                __aeabi_ui2f
                0x00086dc8                __floatunsisf
                0x00086dd0                __floatsisf
                0x00086dd0                __aeabi_i2f
                0x00086df0                __aeabi_ul2f
                0x00086df0                __floatundisf
                0x00086e00                __aeabi_l2f
                0x00086e00                __floatdisf
 .text          0x00086e7c      0x2f8 /home/n-brulez/dev/sdk/android-ndk-r7/toolchains/arm-linux-androideabi-4.4.3/prebuilt/linux-x86/bin/../lib/gcc/arm-linux-androideabi/4.4.3/libgcc.a(_arm_muldivsf3.o)
                0x00086e7c                __aeabi_fmul
                0x00086e7c                __mulsf3
                0x00087014                __aeabi_fdiv
                0x00087014                __divsf3
 .text          0x00087174       0xfc /home/n-brulez/dev/sdk/android-ndk-r7/toolchains/arm-linux-androideabi-4.4.3/prebuilt/linux-x86/bin/../lib/gcc/arm-linux-androideabi/4.4.3/libgcc.a(_arm_cmpsf2.o)
                0x00087174                __gesf2
                0x00087174                __gtsf2
                0x0008717c                __lesf2
                0x0008717c                __ltsf2
                0x00087184                __cmpsf2
                0x00087184                __eqsf2
                0x00087184                __nesf2
                0x000871e8                __aeabi_cfrcmple
                0x000871f8                __aeabi_cfcmple
                0x000871f8                __aeabi_cfcmpeq
                0x0008720c                __aeabi_fcmpeq
                0x00087220                __aeabi_fcmplt
                0x00087234                __aeabi_fcmple
                0x00087248                __aeabi_fcmpge
                0x0008725c                __aeabi_fcmpgt
 .text          0x00087270       0x54 /home/n-brulez/dev/sdk/android-ndk-r7/toolchains/arm-linux-androideabi-4.4.3/prebuilt/linux-x86/bin/../lib/gcc/arm-linux-androideabi/4.4.3/libgcc.a(_arm_fixunssfsi.o)
                0x00087270                __aeabi_f2uiz
                0x00087270                __fixunssfsi
 .text          0x000872c4       0x1c /home/n-brulez/dev/sdk/android-ndk-r7/toolchains/arm-linux-androideabi-4.4.3/prebuilt/linux-x86/bin/../lib/gcc/arm-linux-androideabi/4.4.3/libgcc.a(_aeabi_ldivmod.o)
                0x000872c4                __aeabi_ldivmod
 .text          0x000872e0       0x1c /home/n-brulez/dev/sdk/android-ndk-r7/toolchains/arm-linux-androideabi-4.4.3/prebuilt/linux-x86/bin/../lib/gcc/arm-linux-androideabi/4.4.3/libgcc.a(_aeabi_uldivmod.o)
                0x000872e0                __aeabi_uldivmod
 .text          0x000872fc       0x10 /home/n-brulez/dev/sdk/android-ndk-r7/toolchains/arm-linux-androideabi-4.4.3/prebuilt/linux-x86/bin/../lib/gcc/arm-linux-androideabi/4.4.3/libgcc.a(_dvmd_lnx.o)
                0x000872fc                __div0
 .text          0x0008730c       0x88 /home/n-brulez/dev/sdk/android-ndk-r7/toolchains/arm-linux-androideabi-4.4.3/prebuilt/linux-x86/bin/../lib/gcc/arm-linux-androideabi/4.4.3/libgcc.a(bpabi.o)
                0x0008730c                __gnu_uldivmod_helper
                0x00087350                __gnu_ldivmod_helper
 .text          0x00087394      0xec4 /home/n-brulez/dev/sdk/android-ndk-r7/toolchains/arm-linux-androideabi-4.4.3/prebuilt/linux-x86/bin/../lib/gcc/arm-linux-androideabi/4.4.3/libgcc.a(unwind-arm.o)
                0x00087394                _Unwind_VRS_Get
                0x000873e0                _Unwind_VRS_Set
                0x00087444                _Unwind_GetCFA
                0x0008744c                _Unwind_Complete
                0x00087450                _Unwind_DeleteException
                0x00087904                __aeabi_unwind_cpp_pr2
                0x0008790c                __aeabi_unwind_cpp_pr1
                0x00087914                __aeabi_unwind_cpp_pr0
                0x00087b58                __gnu_Unwind_Backtrace
                0x00087d48                __gnu_Unwind_ForcedUnwind
                0x00087dbc                __gnu_Unwind_RaiseException
                0x00087e60                __gnu_Unwind_Resume_or_Rethrow
                0x00087e80                __gnu_Unwind_Resume
                0x00087eec                _Unwind_VRS_Pop
 .text          0x00088258      0x1a8 /home/n-brulez/dev/sdk/android-ndk-r7/toolchains/arm-linux-androideabi-4.4.3/prebuilt/linux-x86/bin/../lib/gcc/arm-linux-androideabi/4.4.3/libgcc.a(libunwind.o)
                0x00088258                restore_core_regs
                0x00088258                __restore_core_regs
                0x0008826c                __gnu_Unwind_Restore_VFP
                0x00088274                __gnu_Unwind_Save_VFP
                0x0008827c                __gnu_Unwind_Restore_VFP_D
                0x00088284                __gnu_Unwind_Save_VFP_D
                0x0008828c                __gnu_Unwind_Restore_VFP_D_16_to_31
                0x00088294                __gnu_Unwind_Save_VFP_D_16_to_31
                0x0008829c                __gnu_Unwind_Restore_WMMXD
                0x000882e0                __gnu_Unwind_Save_WMMXD
                0x00088324                __gnu_Unwind_Restore_WMMXC
                0x00088338                __gnu_Unwind_Save_WMMXC
                0x0008834c                _Unwind_RaiseException
                0x0008834c                ___Unwind_RaiseException
                0x00088370                _Unwind_Resume
                0x00088370                ___Unwind_Resume
                0x00088394                ___Unwind_Resume_or_Rethrow
                0x00088394                _Unwind_Resume_or_Rethrow
                0x000883b8                ___Unwind_ForcedUnwind
                0x000883b8                _Unwind_ForcedUnwind
                0x000883dc                ___Unwind_Backtrace
                0x000883dc                _Unwind_Backtrace
 .text          0x00088400      0x484 /home/n-brulez/dev/sdk/android-ndk-r7/toolchains/arm-linux-androideabi-4.4.3/prebuilt/linux-x86/bin/../lib/gcc/arm-linux-androideabi/4.4.3/libgcc.a(pr-support.o)
                0x00088458                _Unwind_GetTextRelBase
                0x00088460                _Unwind_GetDataRelBase
                0x00088468                _Unwind_GetLanguageSpecificData
                0x000884a0                _Unwind_GetRegionStart
                0x000884cc                __gnu_unwind_execute
                0x00088844                __gnu_unwind_frame
 .text          0x00088884      0x47c /home/n-brulez/dev/sdk/android-ndk-r7/toolchains/arm-linux-androideabi-4.4.3/prebuilt/linux-x86/bin/../lib/gcc/arm-linux-androideabi/4.4.3/libgcc.a(_divdi3.o)
                0x00088884                __divdi3
 .text          0x00088d00      0x40c /home/n-brulez/dev/sdk/android-ndk-r7/toolchains/arm-linux-androideabi-4.4.3/prebuilt/linux-x86/bin/../lib/gcc/arm-linux-androideabi/4.4.3/libgcc.a(_udivdi3.o)
                0x00088d00                __udivdi3
 .text          0x0008910c        0x0 /home/n-brulez/dev/sdk/android-ndk-r7/platforms/android-14/arch-arm/usr/lib/crtend_so.o
 *fill*         0x0008910c        0x4 00000000
 .text.stub     0x00089110       0x20 linker stubs
 *(.gnu.warning)
 *(.glue_7t)
 .glue_7t       0x00000000        0x0 linker stubs
 *(.glue_7)
 .glue_7        0x00000000        0x0 linker stubs
 *(.vfp11_veneer)
 .vfp11_veneer  0x00000000        0x0 linker stubs
 *(.v4_bx)
 .v4_bx         0x00000000        0x0 linker stubs

format_conv_to_422i_cortexA8_neon
                0x00089130     0x1894
                0x00089130                . = ALIGN (0x8)
                0x00089130                PROVIDE (__start_format_conv_to_422i_cortexA8_neon, ABSOLUTE (.))
 format_conv_to_422i_cortexA8_neon
                0x00089130      0xf8c ./obj/local/armeabi-v7a/h264_dec_lib.a(format_conv_to_yuv422i.rel.rvds.o)
                0x00089130                IH264D_CXA8_YUV420toYUV422I
                0x000891c0                IH264D_CXA8_YUV420toRGB565_wdalign16
                0x0008943c                IH264D_CXA8_YUV420toYUV420SP_UV
                0x00089528                IH264D_CXA8_YUV420toYUV420SP_VU
                0x00089614                IH264D_CXA8_YUV420toYUV420SP_VU_MULT256
                0x00089824                IH264D_CXA8_YUV420toYUV420SP_UV_MULT256
                0x00089a34                IH264D_CXA8_YUV420toYUV420SP_UV_MB
                0x00089c50                IH264D_CXA8_YUV420toYUV420SP_VU_MB
                0x00089e6c                format_conversion
 *fill*         0x0008a0bc        0x4 00
 format_conv_to_422i_cortexA8_neon
                0x0008a0c0      0x904 ./obj/local/armeabi-v7a/mpeg4_asp_dec_lib.a(format_conv_to_yuv422i.o)
                0x0008a0c0                imp4d_cxa8_YUV420toYUV422I
                0x0008a150                imp4d_cxa8_YUV420_RGB565_wdalign16
                0x0008a3cc                IMP4D_CXA8_YUV420toYUV420SP_UV
                0x0008a4b8                IMP4D_CXA8_YUV420toYUV420SP_VU
                0x0008a5a4                IMP4D_CXA8_YUV420toYUV420SP_VU_MULT256
                0x0008a7b4                IMP4D_CXA8_YUV420toYUV420SP_UV_MULT256
                0x0008a9c4                PROVIDE (__stop_format_conv_to_422i_cortexA8_neon, .)

mot_comp        0x0008a9c4      0xdec
                0x0008a9c4                . = ALIGN (0x4)
                0x0008a9c4                PROVIDE (__start_mot_comp, ABSOLUTE (.))
 mot_comp       0x0008a9c4       0xd4 ./obj/local/armeabi-v7a/h264_dec_lib.a(arm_memset.rel.rvds.o)
                0x0008a9c4                memset_MB
 mot_comp       0x0008aa98      0xd18 ./obj/local/armeabi-v7a/mpeg4_asp_dec_lib.a(mot_comp_cortexA8_neon.o)
                0x0008aa98                imp4d_cxa8_fullxhalfy_notcoded_rnd_val_1
                0x0008ab08                imp4d_cxa8_fullxhalfy_notcoded_rnd_val_0
                0x0008ab78                imp4d_cxa8_halfxfully_notcoded_rnd_val_0
                0x0008abf8                imp4d_cxa8_halfxfully_notcoded_rnd_val_1
                0x0008ac78                imp4d_cxa8_halfxhalfy_notcoded_rnd_val_0
                0x0008ad54                imp4d_cxa8_halfxhalfy_notcoded_rnd_val_1
                0x0008ae58                imp4d_cxa8_fullxfully_notcoded
                0x0008aea8                imp4d_cxa8_fullxfully
                0x0008afb0                imp4d_cxa8_fullxhalfy_rnd_type_0
                0x0008b0d0                imp4d_cxa8_fullxhalfy_rnd_type_1
                0x0008b1f0                imp4d_cxa8_halfxfully_rnd_type_0
                0x0008b328                imp4d_cxa8_halfxfully_rnd_type_1
                0x0008b460                imp4d_cxa8_halfxhalfy_rnd_type_0
                0x0008b5f4                imp4d_cxa8_halfxhalfy_rnd_type_1
                0x0008b7b0                PROVIDE (__stop_mot_comp, .)

x               0x0008b7b0     0x6774
                0x0008b7b0                . = ALIGN (0x4)
                0x0008b7b0                PROVIDE (__start_x, ABSOLUTE (.))
 x              0x0008b7b0      0x300 ./obj/local/armeabi-v7a/mpeg4_asp_dec_lib.a(inv_ac_dc_pred.o)
                0x0008b7b0                imp4d_cxa8_InvAcDcPred
 x              0x0008bab0       0x90 ./obj/local/armeabi-v7a/mpeg4_asp_dec_lib.a(it_picbuf.o)
                0x0008bab0                imp4d_cxa8_PicBufMgInit
 x              0x0008bb40      0x804 ./obj/local/armeabi-v7a/mpeg4_asp_dec_lib.a(mv_decode.o)
                0x0008bb40                imp4d_cxa8_MvDecoder_P
                0x0008bbf0                imp4d_cxa8_DecodeMvSingleComponent
                0x0008bcb8                imp4d_cxa8_DecodeMotionVector_opt
                0x0008bd68                imp4d_cxa8_MvDecoder_B
                0x0008c218                imp4d_cxa8_UpdateMVBank
                0x0008c260                imp4d_cxa8_DecodeMotionVector
 x              0x0008c344      0x104 ./obj/local/armeabi-v7a/mpeg4_asp_dec_lib.a(utils.o)
                0x0008c344                imp4d_cxa8_InitMvBank
 x              0x0008c448      0x4bc ./obj/local/armeabi-v7a/mpeg4_asp_dec_lib.a(videobitstream.o)
                0x0008c448                imp4d_cxa8_DecodeVideoObjectLayerHeader
                0x0008c4bc                imp4d_cxa8_init_pic_buffer
                0x0008c5e8                imp4d_cxa8_DecodeVOL
 x              0x0008c904      0x948 ./obj/local/armeabi-v7a/mpeg4_asp_dec_lib.a(bitstream.o)
                0x0008c904                imp4d_cxa8_InitBitStream
                0x0008c9b4                imp4d_cxa8_GetBit
                0x0008ca04                imp4d_cxa8_GetBits
                0x0008caa0                imp4d_cxa8_NextBits
                0x0008cae8                imp4d_cxa8_NextBits_32
                0x0008cb14                imp4d_cxa8_FlushBits
                0x0008cb5c                imp4d_cxa8_NextBitsByteAligned
                0x0008cc44                imp4d_cxa8_NextBitsByteAligned_Resync
                0x0008ccf8                imp4d_cxa8_FindNextResyncMarker
                0x0008d094                imp4d_cxa8_NextStartCode
                0x0008d184                imp4d_cxa8_NextResyncMarker
 x              0x0008d24c     0x127c ./obj/local/armeabi-v7a/mpeg4_asp_dec_lib.a(blockdecode.o)
                0x0008d24c                imp4d_cxa8_GetDcCoeff_opt
                0x0008d358                imp4d_cxa8_BuildBlockCoeffMatrix_Vlc
                0x0008d9e0                imp4d_cxa8_BuildBlockCoeffMatrix_Rvlc
                0x0008db84                imp4d_cxa8_BuildBlockCoeffMatrix_Rvlc_inter
                0x0008dcf8                imp4d_cxa8_DecodeIntraBlock
                0x0008e0e0                imp4d_cxa8_DecodeInterBlock
                0x0008e1ac                imp4d_cxa8_DecodeInterBlock_sp
 x              0x0008e4c8      0x538 ./obj/local/armeabi-v7a/mpeg4_asp_dec_lib.a(decodebvop.o)
                0x0008e4c8                DecodeBMB
                0x0008e664                imp4d_cxa8_DecodeBVOP
 x              0x0008ea00      0x680 ./obj/local/armeabi-v7a/mpeg4_asp_dec_lib.a(decodeivop.o)
                0x0008ea00                imp4d_cxa8_GetDc_Scaler
                0x0008ea48                imp4d_cxa8_DecodeIntraMB_IVOP
                0x0008eb24                imp4d_cxa8_imp4d_cxa8_DecodeMBHeader_IVOP
                0x0008ec90                imp4d_cxa8_DecodeIVOP
 x              0x0008f080      0xa54 ./obj/local/armeabi-v7a/mpeg4_asp_dec_lib.a(decodepvop.o)
                0x0008f080                imp4d_cxa8_DecodePMB_interlaced
                0x0008f190                imp4d_cxa8_DecodePMB_non_interlaced
                0x0008f200                imp4d_cxa8_DecodeIntraMB_PVOP
                0x0008f2a8                imp4d_cxa8_DecodePVOP
                0x0008f60c                imp4d_cxa8_DecodeMBHeader_PVOP_interlace
                0x0008f8b4                imp4d_cxa8_DecodeMBHeader_PVOP_non_interlace
 x              0x0008fad4       0x34 ./obj/local/armeabi-v7a/mpeg4_asp_dec_lib.a(dequantizer.o)
                0x0008fad4                imp4d_cxa8_Dequantizer_QuantType0
                0x0008faf8                imp4d_cxa8_Dequantizer_QuantType1
 x              0x0008fb08     0x1ecc ./obj/local/armeabi-v7a/mpeg4_asp_dec_lib.a(interlace.o)
                0x0008fb08                imp4d_cxa8_GetInterlaceInfo
                0x0008fbf4                imp4d_cxa8_imp4d_cxa8_MvDecoder_P_I
                0x0008fd48                imp4d_cxa8_Mv_B_I
                0x0008fef4                imp4d_cxa8_imp4d_cxa8_MvDecoder_B_I
                0x000901e0                Update_MV_I
                0x00090290                InterpolateBuffer_I
                0x000902d0                imp4d_cxa8_MotionCompensateForwOrBack_I
                0x000905a8                imp4d_cxa8_MotionCompensateForwOrBackQuarterPel_I
                0x00090a3c                MotionCompensateForwAndBackQuarterPel_I
                0x00091298                MotionCompensateForwAndBack_I
                0x00091788                imp4d_cxa8_MotionCompensate_B_I
                0x00091818                imp4d_cxa8_DecodeInterlaceMB
 x              0x000919d4      0x4e0 ./obj/local/armeabi-v7a/mpeg4_asp_dec_lib.a(motioncompensate.o)
                0x000919d4                imp4d_cxa8_ComputeRangeAndShift
                0x00091a4c                imp4d_cxa8_PutBlockToBuffer
                0x00091cd0                imp4d_cxa8_MotionCompensateForwOrBack
 x              0x00091eb4       0x70 ./obj/local/armeabi-v7a/mpeg4_asp_dec_lib.a(vldecoder.o)
                0x00091eb4                imp4d_cxa8_vld_opt
                0x00091f24                PROVIDE (__stop_x, .)

mot_comp_interlace
                0x00091f24     0x258c
                0x00091f24                . = ALIGN (0x4)
                0x00091f24                PROVIDE (__start_mot_comp_interlace, ABSOLUTE (.))
 mot_comp_interlace
                0x00091f24      0x8d8 ./obj/local/armeabi-v7a/mpeg4_asp_dec_lib.a(ApplyFilter_n_GetQuarterPelVal_cortexA8_neon.o)
                0x00091f24                imp4d_cxa8_ApplyFilterQuarterPel_9x9
                0x000923a4                imp4d_cxa8_ApplyFilterQuarterPel_17x17
 mot_comp_interlace
                0x000927fc      0x5c4 ./obj/local/armeabi-v7a/mpeg4_asp_dec_lib.a(interlace_mot_comp_notcoded_cortexA8_neon.o)
                0x000927fc                imp4d_cxa8_fullxfully_I_notcoded
                0x00092888                imp4d_cxa8_fullxhalfy_I_notcoded
                0x000929dc                imp4d_cxa8_halfxfully_I_notcoded
                0x00092b78                imp4d_cxa8_halfxhalfy_I_notcoded
 mot_comp_interlace
                0x00092dc0      0xbb8 ./obj/local/armeabi-v7a/mpeg4_asp_dec_lib.a(mot_comp_interlace_cortexA8_neon.o)
                0x00092dc0                imp4d_cxa8_fullxfully_I
                0x00092fd0                imp4d_cxa8_fullxhalfy_I
                0x00093298                imp4d_cxa8_halfxfully_I
                0x000935a8                imp4d_cxa8_halfxhalfy_I
 mot_comp_interlace
                0x00093978      0x768 ./obj/local/armeabi-v7a/mpeg4_asp_dec_lib.a(mc_AddBufferToBlkMatrix_funcs_cortexA8_neon.o)
                0x00093978                imp4d_cxa8_AddBufferToBlkMatrix
                0x00093b90                imp4d_cxa8_AddBufferToBlkMatrix_I
                0x00093df4                imp4d_cxa8_AddBufferToBlkMatrix_P_I
                0x00093f64                imp4d_cxa8_AddBufferToBlkMatrix_P
 mot_comp_interlace
                0x000940e0      0x3d0 ./obj/local/armeabi-v7a/mpeg4_asp_dec_lib.a(mc_interpolate_buf_cortexA8_neon.o)
                0x000940e0                imp4d_cxa8_InterpolateHalf_xFull_y_I
                0x00094208                imp4d_cxa8_InterpolateFull_xHalf_y_I
                0x000942c8                imp4d_cxa8_InterpolateHalf_xHalf_y_I
                0x000944b0                PROVIDE (__stop_mot_comp_interlace, .)

mv_dec          0x000944b0      0x570
                0x000944b0                . = ALIGN (0x4)
                0x000944b0                PROVIDE (__start_mv_dec, ABSOLUTE (.))
 mv_dec         0x000944b0      0x570 ./obj/local/armeabi-v7a/mpeg4_asp_dec_lib.a(mv_decode_cortexA8_neon.o)
                0x000944b0                imp4d_cxa8_GetPredictorInter
                0x0009461c                imp4d_cxa8_GetPredictorInter4v
                0x000949a8                imp4d_cxa8_CopyBlkToFrame
                0x00094a20                PROVIDE (__stop_mv_dec, .)

bit_stream      0x00094a20       0xac
                0x00094a20                . = ALIGN (0x4)
                0x00094a20                PROVIDE (__start_bit_stream, ABSOLUTE (.))
 bit_stream     0x00094a20       0xac ./obj/local/armeabi-v7a/mpeg4_asp_dec_lib.a(bitstream_cortexA8_neon.o)
                0x00094a20                imp4d_cxa8_memset_blk_mat
                0x00094a54                imp4d_cxa8_fill_avg_energy_intra
                0x00094ac0                arm_asm_clz
                0x00094acc                PROVIDE (__stop_bit_stream, .)

MPEG4_DEC_CS_PVOP_101
                0x00094acc      0x9f0
                0x00094acc                . = ALIGN (0x4)
                0x00094acc                PROVIDE (__start_MPEG4_DEC_CS_PVOP_101, ABSOLUTE (.))
 MPEG4_DEC_CS_PVOP_101
                0x00094acc      0x9f0 ./obj/local/armeabi-v7a/mpeg4_asp_dec_lib.a(bitstream_cortexA8_neon.o)
                0x00094acc                imp4d_cxa8_PutRefMBtoPFrame
                0x00094c28                imp4d_cxa8_PutBlockToBuffer_opt
                0x00094f9c                imp4d_cxa8_PutBlockToBuffer_I
                0x000954bc                PROVIDE (__stop_MPEG4_DEC_CS_PVOP_101, .)

dequant         0x000954bc      0x798
                0x000954bc                . = ALIGN (0x4)
                0x000954bc                PROVIDE (__start_dequant, ABSOLUTE (.))
 dequant        0x000954bc      0x798 ./obj/local/armeabi-v7a/mpeg4_asp_dec_lib.a(dequant_cortexA8_neon.o)
                0x000954bc                imp4d_cxa8_dequant0_rows1to8
                0x000956a4                imp4d_cxa8_dequant0_rows1to4
                0x000957dc                imp4d_cxa8_dequant1_rows1to8
                0x00095aa0                imp4d_cxa8_dequant1_rows1to4
                0x00095c54                PROVIDE (__stop_dequant, .)

idct_cortexA8_neon
                0x00095c58      0x778
                0x00095c58                . = ALIGN (0x8)
                0x00095c58                PROVIDE (__start_idct_cortexA8_neon, ABSOLUTE (.))
 idct_cortexA8_neon
                0x00095c58      0x778 ./obj/local/armeabi-v7a/mpeg4_asp_dec_lib.a(idct_cortexA8_neon.o)
                0x00095c58                imp4d_cxa8_idct_full
                0x00095fac                imp4d_cxa8_idct_col_first_four
                0x000961b4                imp4d_cxa8_idct_col_second_four
                0x000963d0                PROVIDE (__stop_idct_cortexA8_neon, .)

AcDcPred        0x000963d0      0x430
                0x000963d0                . = ALIGN (0x4)
                0x000963d0                PROVIDE (__start_AcDcPred, ABSOLUTE (.))
 AcDcPred       0x000963d0      0x430 ./obj/local/armeabi-v7a/mpeg4_asp_dec_lib.a(inv_acdc_pred_cortexA8.o)
                0x000963d0                imp4d_cxa8_DoAcDcPred
                0x00096800                PROVIDE (__stop_AcDcPred, .)

.fini
 *(.fini)
                0x00096800                PROVIDE (__etext, .)
                0x00096800                PROVIDE (_etext, .)
                0x00096800                PROVIDE (etext, .)

.rodata         0x00096800     0x82c0
 *(.rodata .rodata.* .gnu.linkonce.r.*)
 .rodata.str1.4
                0x00096800      0x4c0 ./obj/local/armeabi-v7a/objs/adfreeflight/app.o
 .rodata.str1.4
                0x00096cc0       0x20 ./obj/local/armeabi-v7a/objs/adfreeflight/video_stage_io_file.o
 .rodata        0x00096ce0       0x30 ./obj/local/armeabi-v7a/objs/adfreeflight/hardware_capabilites.o
                0x00096ce0                vCapsInfo
 .rodata.str1.4
                0x00096d10       0x8a ./obj/local/armeabi-v7a/objs/adfreeflight/hardware_capabilites.o
                                 0x8c (size before relaxing)
 *fill*         0x00096d9a        0x2 00
 .rodata.str1.4
                0x00096d9c       0x48 ./obj/local/armeabi-v7a/objs/adfreeflight/ControlData.o
 .rodata.str1.4
                0x00096de4      0x121 ./obj/local/armeabi-v7a/objs/adfreeflight/Callbacks/drone_proxy_callbacks.o
                                0x124 (size before relaxing)
 *fill*         0x00096f05        0x3 00
 .rodata.str1.4
                0x00096f08       0x4f ./obj/local/armeabi-v7a/objs/adfreeflight/Callbacks/java_callbacks.o
                                 0x64 (size before relaxing)
 *fill*         0x00096f57        0x1 00
 .rodata.str1.4
                0x00096f58       0x10 ./obj/local/armeabi-v7a/objs/adfreeflight/Plf/plf.o
                                 0x14 (size before relaxing)
 .rodata        0x00096f68       0x80 ./obj/local/armeabi-v7a/objs/adfreeflight/Stubs/drone_stub.o
 .rodata.str1.4
                0x00096fe8      0x77b ./obj/local/armeabi-v7a/objs/adfreeflight/Stubs/drone_stub.o
                                0x7a4 (size before relaxing)
 *fill*         0x00097763        0x1 00
 .rodata.str1.4
                0x00097764       0xae ./obj/local/armeabi-v7a/objs/adfreeflight/Stubs/drone_config_stub.o
                                0x14c (size before relaxing)
 *fill*         0x00097812        0x2 00
 .rodata.str1.4
                0x00097814      0x180 ./obj/local/armeabi-v7a/objs/adfreeflight/Stubs/ftp_client_stub.o
                                0x184 (size before relaxing)
 .rodata        0x00097994       0x10 ./obj/local/armeabi-v7a/objs/adfreeflight/Stubs/plf_file_stub.o
 .rodata.str1.4
                0x000979a4       0x50 ./obj/local/armeabi-v7a/objs/adfreeflight/Stubs/plf_file_stub.o
                                 0x64 (size before relaxing)
 .rodata.str1.4
                0x000979f4      0x5c6 ./obj/local/armeabi-v7a/objs/adfreeflight/Stubs/transcoding_service_stub.o
                                0x5dc (size before relaxing)
 *fill*         0x00097fba        0x2 00
 .rodata.str1.4
                0x00097fbc       0x52 ./obj/local/armeabi-v7a/objs/adfreeflight/Stubs/gl_bg_video_sprite_stub.o
                                 0x54 (size before relaxing)
 *fill*         0x0009800e        0x2 00
 .rodata.str1.4
                0x00098010       0x49 ./obj/local/armeabi-v7a/objs/adfreeflight/NavData/nav_data.o
                                 0x4c (size before relaxing)
 *fill*         0x00098059        0x3 00
 .rodata.str1.4
                0x0009805c       0x16 ./obj/local/armeabi-v7a/objs/adfreeflight/Video/frame_rate.o
                                 0x18 (size before relaxing)
 *fill*         0x00098072        0x2 00
 .rodata.str1.4
                0x00098074       0x3c ./obj/local/armeabi-v7a/objs/adfreeflight/Controller/virtual_gamepad.o
 .rodata.str1.4
                0x000980b0       0x92 ./obj/local/armeabi-v7a/objs/adfreeflight/Video/opengl_shader.o
                                 0x94 (size before relaxing)
 *fill*         0x00098142        0x2 00
 .rodata        0x00098144       0x20 ./obj/local/armeabi-v7a/objs/adfreeflight/Video/opengl_texture.o
 .rodata.str1.4
                0x00098164       0x43 ./obj/local/armeabi-v7a/objs/adfreeflight/Video/opengl_texture.o
                                 0x44 (size before relaxing)
 *fill*         0x000981a7        0x1 00
 .rodata.str1.4
                0x000981a8       0x2c ./obj/local/armeabi-v7a/libpc_ardrone.a(ardrone_version.o)
                                 0x40 (size before relaxing)
 .rodata        0x000981d4       0x34 ./obj/local/armeabi-v7a/libpc_ardrone.a(ardrone_ftp.o)
 .rodata.str1.4
                0x00098208      0x981 ./obj/local/armeabi-v7a/libpc_ardrone.a(ardrone_ftp.o)
                                0x9a4 (size before relaxing)
 *fill*         0x00098b89        0x3 00
 .rodata        0x00098b8c      0x1d8 ./obj/local/armeabi-v7a/libpc_ardrone.a(ardrone_video_atoms.o)
 .rodata.str1.4
                0x00098d64       0x8d ./obj/local/armeabi-v7a/libpc_ardrone.a(ardrone_video_atoms.o)
                                 0x90 (size before relaxing)
 *fill*         0x00098df1        0x3 00
 .rodata        0x00098df4       0x74 ./obj/local/armeabi-v7a/libpc_ardrone.a(ardrone_video_encapsuler.o)
 .rodata.str1.4
                0x00098e68      0x6ab ./obj/local/armeabi-v7a/libpc_ardrone.a(ardrone_video_encapsuler.o)
                                0x6b8 (size before relaxing)
 *fill*         0x00099513        0x1 00
 .rodata        0x00099514       0x70 ./obj/local/armeabi-v7a/libpc_ardrone.a(video_stage_encoded_recorder.o)
 .rodata.str1.4
                0x00099584      0x1ad ./obj/local/armeabi-v7a/libpc_ardrone.a(video_stage_encoded_recorder.o)
                                0x1b4 (size before relaxing)
 *fill*         0x00099731        0x3 00
 .rodata.str1.4
                0x00099734       0xcb ./obj/local/armeabi-v7a/libpc_ardrone.a(video_stage_latency_estimation.o)
                                 0xcc (size before relaxing)
 *fill*         0x000997ff        0x1 00
 .rodata.str1.4
                0x00099800       0x59 ./obj/local/armeabi-v7a/libpc_ardrone.a(video_recorder_pipeline.o)
                                 0x74 (size before relaxing)
 *fill*         0x00099859        0x3 00
 .rodata.str1.4
                0x0009985c       0x44 ./obj/local/armeabi-v7a/libpc_ardrone.a(video_stage.o)
                                 0x58 (size before relaxing)
 .rodata.str1.4
                0x000998a0      0x9fd ./obj/local/armeabi-v7a/libpc_ardrone.a(ardrone_at_mutex.o)
                                0xa28 (size before relaxing)
 *fill*         0x0009a29d        0x3 00
 .rodata        0x0009a2a0       0x10 ./obj/local/armeabi-v7a/libpc_ardrone.a(academy.o)
 .rodata.str1.4
                0x0009a2b0       0x9e ./obj/local/armeabi-v7a/libpc_ardrone.a(academy.o)
                                 0xac (size before relaxing)
 *fill*         0x0009a34e        0x2 00
 .rodata        0x0009a350       0x18 ./obj/local/armeabi-v7a/libpc_ardrone.a(academy_upload.o)
 .rodata.str1.4
                0x0009a368      0x12d ./obj/local/armeabi-v7a/libpc_ardrone.a(academy_upload.o)
                                0x154 (size before relaxing)
 *fill*         0x0009a495        0x3 00
 .rodata.str1.4
                0x0009a498       0x43 ./obj/local/armeabi-v7a/libpc_ardrone.a(academy_stage_recorder.o)
                                 0x9c (size before relaxing)
 *fill*         0x0009a4db        0x1 00
 .rodata.str1.4
                0x0009a4dc     0x19ad ./obj/local/armeabi-v7a/libpc_ardrone.a(ardrone_navdata_file.o)
                               0x19f0 (size before relaxing)
 *fill*         0x0009be89        0x3 00
 .rodata.str1.4
                0x0009be8c        0x5 ./obj/local/armeabi-v7a/libpc_ardrone.a(ardrone_general_navdata.o)
                                 0x14 (size before relaxing)
 *fill*         0x0009be91        0x3 00
 .rodata        0x0009be94       0x1c ./obj/local/armeabi-v7a/libpc_ardrone.a(ardrone_academy_navdata.o)
 .rodata.str1.4
                0x0009beb0      0x190 ./obj/local/armeabi-v7a/libpc_ardrone.a(ardrone_academy_navdata.o)
                                0x1ac (size before relaxing)
 .rodata.str1.4
                0x0009c040      0x11b ./obj/local/armeabi-v7a/libpc_ardrone.a(ardrone_input.o)
                                0x124 (size before relaxing)
 *fill*         0x0009c15b        0x1 00
 .rodata.str1.4
                0x0009c15c      0xcf6 ./obj/local/armeabi-v7a/libpc_ardrone.a(ardrone_tool_configuration.o)
                               0x1114 (size before relaxing)
 *fill*         0x0009ce52        0x2 00
 .rodata.str1.4
                0x0009ce54      0x25e ./obj/local/armeabi-v7a/libpc_ardrone.a(ardrone_tool.o)
                                0x3d4 (size before relaxing)
 *fill*         0x0009d0b2        0x2 00
 .rodata.str1.4
                0x0009d0b4      0x118 ./obj/local/armeabi-v7a/libpc_ardrone.a(config_wifi.o)
 .rodata        0x0009d1cc       0x28 ./obj/local/armeabi-v7a/libpc_ardrone.a(video_com_stage.o)
 .rodata.str1.4
                0x0009d1f4       0xd6 ./obj/local/armeabi-v7a/libpc_ardrone.a(video_com_stage.o)
                                 0xe8 (size before relaxing)
 *fill*         0x0009d2ca        0x2 00
 .rodata.str1.4
                0x0009d2cc        0x7 ./obj/local/armeabi-v7a/libpc_ardrone.a(ardrone_control.o)
                                  0x8 (size before relaxing)
 *fill*         0x0009d2d3        0x1 00
 .rodata.str1.4
                0x0009d2d4      0x107 ./obj/local/armeabi-v7a/libpc_ardrone.a(ardrone_navdata_client.o)
                                0x110 (size before relaxing)
 *fill*         0x0009d3db        0x1 00
 .rodata.str1.4
                0x0009d3dc      0x29c ./obj/local/armeabi-v7a/libpc_ardrone.a(iniparser.o)
                                0x2bc (size before relaxing)
 .rodata.str1.4
                0x0009d678       0x27 ./obj/local/armeabi-v7a/libpc_ardrone.a(dictionary.o)
                                 0x28 (size before relaxing)
 *fill*         0x0009d69f        0x1 00
 .rodata.str1.4
                0x0009d6a0       0x69 ./obj/local/armeabi-v7a/libpc_ardrone.a(navdata.o)
                                 0x74 (size before relaxing)
 *fill*         0x0009d709        0x3 00
 .rodata        0x0009d70c       0x68 ./obj/local/armeabi-v7a/libpc_ardrone.a(config_keys.o)
                0x0009d70c                default_accs_offset
                0x0009d718                default_accs_gain
                0x0009d73c                default_gyros_offset
                0x0009d748                default_gyros_gains
                0x0009d754                default_gyros110_offset
                0x0009d75c                default_gyros110_gains
                0x0009d764                default_magneto_offset
                0x0009d770                default_magneto_radius
 .rodata.str1.4
                0x0009d774       0x2f ./obj/local/armeabi-v7a/libpc_ardrone.a(config_keys.o)
                                 0xb4 (size before relaxing)
 *fill*         0x0009d7a3        0x1 00
 .rodata.str1.4
                0x0009d7a4       0x10 ./obj/local/armeabi-v7a/libpc_ardrone.a(ardrone_date.o)
                                 0x20 (size before relaxing)
 .rodata.str1.4
                0x0009d7b4       0x13 ./obj/local/armeabi-v7a/libpc_ardrone.a(ardrone_gen_ids.o)
                                 0x1c (size before relaxing)
 *fill*         0x0009d7c7        0x1 00
 .rodata.str1.4
                0x0009d7c8      0x20b ./obj/local/armeabi-v7a/libpc_ardrone.a(video_stage_tcp.o)
                                0x20c (size before relaxing)
 *fill*         0x0009d9d3        0x1 00
 .rodata        0x0009d9d4       0x24 ./obj/local/armeabi-v7a/libpc_ardrone.a(video_stage_merge_slices.o)
 .rodata.str1.4
                0x0009d9f8       0x29 ./obj/local/armeabi-v7a/libpc_ardrone.a(video_stage_merge_slices.o)
                                 0x58 (size before relaxing)
 *fill*         0x0009da21        0x3 00
 .rodata.str1.4
                0x0009da24       0xdc ./obj/local/armeabi-v7a/libpc_ardrone.a(video_stage_decoder.o)
                                 0xe0 (size before relaxing)
 .rodata        0x0009db00       0x18 ./obj/local/armeabi-v7a/libpc_ardrone.a(academy_download.o)
 .rodata.str1.4
                0x0009db18      0x165 ./obj/local/armeabi-v7a/libpc_ardrone.a(academy_download.o)
                                0x1e8 (size before relaxing)
 *fill*         0x0009dc7d        0x3 00
 .rodata.str1.4
                0x0009dc80       0x12 ./obj/local/armeabi-v7a/libpc_ardrone.a(video_encapsulation.o)
                                0x124 (size before relaxing)
 *fill*         0x0009dc92        0x2 00
 .rodata.str1.4
                0x0009dc94       0xd6 ./obj/local/armeabi-v7a/libpc_ardrone.a(video_stage_ffmpeg_decoder.o)
                                 0xd8 (size before relaxing)
 *fill*         0x0009dd6a        0x2 00
 .rodata.str1.4
                0x0009dd6c      0x179 ./obj/local/armeabi-v7a/libpc_ardrone.a(video_stage_ittiam_decoder.o)
                                0x1fc (size before relaxing)
 *fill*         0x0009dee5        0x3 00
 .rodata.str1.4
                0x0009dee8       0x13 ./obj/local/armeabi-v7a/libvlib.a(video_codec.o)
                                 0x1c (size before relaxing)
 *fill*         0x0009defb        0x1 00
 .rodata.str1.4
                0x0009defc       0x19 ./obj/local/armeabi-v7a/libvlib.a(p264_codec.o)
                                 0x24 (size before relaxing)
 *fill*         0x0009df15        0x3 00
 .rodata.str1.4
                0x0009df18       0xce ./obj/local/armeabi-v7a/libvlib.a(video_p264.o)
                                 0xdc (size before relaxing)
 *fill*         0x0009dfe6        0x2 00
 .rodata        0x0009dfe8       0x44 ./obj/local/armeabi-v7a/libvlib.a(video_picture.o)
 .rodata.str1.4
                0x0009e02c       0x53 ./obj/local/armeabi-v7a/libvlib.a(video_picture.o)
                                 0x5c (size before relaxing)
 *fill*         0x0009e07f        0x1 00
 .rodata        0x0009e080       0x44 ./obj/local/armeabi-v7a/libvlib.a(p264_intra_pred.o)
 .rodata.str1.4
                0x0009e0c4      0x3e1 ./obj/local/armeabi-v7a/libvlib.a(p264_intra_pred.o)
                                0x3ec (size before relaxing)
 *fill*         0x0009e4a5        0x3 00
 .rodata        0x0009e4a8       0x38 ./obj/local/armeabi-v7a/libvlib.a(p264_inter_mc.o)
 .rodata        0x0009e4e0       0x58 ./obj/local/armeabi-v7a/libsdk.a(vp_api.o)
                0x0009e4e0                VP_API_RESOLUTION_WH
 .rodata.str1.4
                0x0009e538       0x5b ./obj/local/armeabi-v7a/libsdk.a(vp_api_thread_helper.o)
                                 0x64 (size before relaxing)
 *fill*         0x0009e593        0x1 00
 .rodata.str1.4
                0x0009e594      0x11e ./obj/local/armeabi-v7a/libsdk.a(ATcodec_api.o)
                                0x128 (size before relaxing)
 *fill*         0x0009e6b2        0x2 00
 .rodata.str1.4
                0x0009e6b4       0x8f ./obj/local/armeabi-v7a/libsdk.a(vp_com.o)
                                 0x98 (size before relaxing)
 *fill*         0x0009e743        0x1 00
 .rodata.str1.4
                0x0009e744       0xc6 ./obj/local/armeabi-v7a/libsdk.a(vp_com_error.o)
                                 0xcc (size before relaxing)
 *fill*         0x0009e80a        0x2 00
 .rodata.str1.4
                0x0009e80c      0x1fa ./obj/local/armeabi-v7a/libsdk.a(vp_com_socket.o)
                                0x204 (size before relaxing)
 *fill*         0x0009ea06        0x2 00
 .rodata.str1.4
                0x0009ea08       0xae ./obj/local/armeabi-v7a/libsdk.a(vp_com_socket_utils.o)
                                 0xb8 (size before relaxing)
 *fill*         0x0009eab6        0x2 00
 .rodata.str1.4
                0x0009eab8        0x8 ./obj/local/armeabi-v7a/libsdk.a(vp_os_error_handling.o)

.constdata      0x0009eac0     0x268e
 .constdata     0x0009eac0       0x64 ./obj/local/armeabi-v7a/h264_dec_lib.a(bufapi_ittiam_ialg.rel.rvds.o)
 .constdata     0x0009eb24        0xa ./obj/local/armeabi-v7a/h264_dec_lib.a(globals.rel.rvds.o)
                0x0009eb24                guc_topLeftMbPartIndxMod
 .constdata     0x0009eb2e        0xa ./obj/local/armeabi-v7a/h264_dec_lib.a(globals.rel.rvds.o)
                0x0009eb2e                guc_subMbIndxModSPDrct
 .constdata     0x0009eb38       0x10 ./obj/local/armeabi-v7a/h264_dec_lib.a(globals.rel.rvds.o)
                0x0009eb38                guc_colocatedMapFrmToFld
 .constdata     0x0009eb48       0x10 ./obj/local/armeabi-v7a/h264_dec_lib.a(globals.rel.rvds.o)
                0x0009eb48                guc_colocatedMapFldToFrm
 .constdata     0x0009eb58        0x1 ./obj/local/armeabi-v7a/h264_dec_lib.a(tables.rel.rvds.o)
                0x0009eb58                g_int_tbl_start
 .constdata     0x0009eb59       0x4b ./obj/local/armeabi-v7a/h264_dec_lib.a(tables.rel.rvds.o)
                0x0009eb59                guc_qpScaleCr
 .constdata     0x0009eba4       0x4b ./obj/local/armeabi-v7a/h264_dec_lib.a(tables.rel.rvds.o)
                0x0009eba4                guc_alphaTable
 .constdata     0x0009ebef       0x4b ./obj/local/armeabi-v7a/h264_dec_lib.a(tables.rel.rvds.o)
                0x0009ebef                guc_clipTableDeblock
 .constdata     0x0009ec3a       0x4b ./obj/local/armeabi-v7a/h264_dec_lib.a(tables.rel.rvds.o)
                0x0009ec3a                guc_betaTable
 .constdata     0x0009ec85      0x12c ./obj/local/armeabi-v7a/h264_dec_lib.a(tables.rel.rvds.o)
                0x0009ec85                guc_clipTable
 *fill*         0x0009edb1        0x3 00
 .constdata     0x0009edb4       0x80 ./obj/local/armeabi-v7a/h264_dec_lib.a(tables.rel.rvds.o)
                0x0009edb4                gu4_packed_bs2
 .constdata     0x0009ee34       0x20 ./obj/local/armeabi-v7a/h264_dec_lib.a(tables.rel.rvds.o)
                0x0009ee34                gu2_4x4_v2h_reorder
 .constdata     0x0009ee54       0x10 ./obj/local/armeabi-v7a/h264_dec_lib.a(tables.rel.rvds.o)
                0x0009ee54                guc_subblkOffset
 .constdata     0x0009ee64        0x6 ./obj/local/armeabi-v7a/h264_dec_lib.a(tables.rel.rvds.o)
                0x0009ee64                gcICBPTAB
 .constdata     0x0009ee6a       0x60 ./obj/local/armeabi-v7a/h264_dec_lib.a(tables.rel.rvds.o)
                0x0009ee6a                guc_CbpTable
 .constdata     0x0009eeca       0x10 ./obj/local/armeabi-v7a/h264_dec_lib.a(tables.rel.rvds.o)
                0x0009eeca                guc_invScan
 .constdata     0x0009eeda       0x10 ./obj/local/armeabi-v7a/h264_dec_lib.a(tables.rel.rvds.o)
                0x0009eeda                guc_invScanFld
 *fill*         0x0009eeea        0x6 00
 .constdata     0x0009eef0       0x60 ./obj/local/armeabi-v7a/h264_dec_lib.a(tables.rel.rvds.o)
                0x0009eef0                guc_dequantMatrix
 .constdata     0x0009ef50        0x8 ./obj/local/armeabi-v7a/h264_dec_lib.a(tables.rel.rvds.o)
                0x0009ef50                guc_mvPredCondition
 .constdata     0x0009ef58        0x4 ./obj/local/armeabi-v7a/h264_dec_lib.a(tables.rel.rvds.o)
                0x0009ef58                guc_numSubMbPart
 .constdata     0x0009ef5c        0x4 ./obj/local/armeabi-v7a/h264_dec_lib.a(tables.rel.rvds.o)
                0x0009ef5c                guc_subMbPartW
 .constdata     0x0009ef60        0x4 ./obj/local/armeabi-v7a/h264_dec_lib.a(tables.rel.rvds.o)
                0x0009ef60                guc_subMbPartH
 .constdata     0x0009ef64        0x4 ./obj/local/armeabi-v7a/h264_dec_lib.a(tables.rel.rvds.o)
                0x0009ef64                guc_numMbPart
 .constdata     0x0009ef68        0x5 ./obj/local/armeabi-v7a/h264_dec_lib.a(tables.rel.rvds.o)
                0x0009ef68                guc_MbPartW
 .constdata     0x0009ef6d        0x5 ./obj/local/armeabi-v7a/h264_dec_lib.a(tables.rel.rvds.o)
                0x0009ef6d                guc_MbPartH
 *fill*         0x0009ef72        0x2 00
 .constdata     0x0009ef74       0x10 ./obj/local/armeabi-v7a/h264_dec_lib.a(tables.rel.rvds.o)
                0x0009ef74                gui32_subMbPart
 .constdata     0x0009ef84       0x10 ./obj/local/armeabi-v7a/h264_dec_lib.a(tables.rel.rvds.o)
                0x0009ef84                guc_subMbIndxMod
 .constdata     0x0009ef94       0x30 ./obj/local/armeabi-v7a/h264_dec_lib.a(tables.rel.rvds.o)
                0x0009ef94                guc_CbpInter
 .constdata     0x0009efc4        0xc ./obj/local/armeabi-v7a/h264_dec_lib.a(tables.rel.rvds.o)
                0x0009efc4                guc_mvPred_temp
 .constdata     0x0009efd0       0x1f ./obj/local/armeabi-v7a/h264_dec_lib.a(tables.rel.rvds.o)
                0x0009efd0                guc_MbMcMode
 .constdata     0x0009efef       0x14 ./obj/local/armeabi-v7a/h264_dec_lib.a(tables.rel.rvds.o)
                0x0009efef                guc_SubMbMcMode
 .constdata     0x0009f003       0x14 ./obj/local/armeabi-v7a/h264_dec_lib.a(tables.rel.rvds.o)
                0x0009f003                guc_subMbPredModes
 .constdata     0x0009f017       0x40 ./obj/local/armeabi-v7a/h264_dec_lib.a(tables.rel.rvds.o)
                0x0009f017                guc_MbPredModes
 .constdata     0x0009f057      0x240 ./obj/local/armeabi-v7a/h264_dec_lib.a(tables.rel.rvds.o)
                0x0009f057                gpu1_table_total_zero_2to10
 .constdata     0x0009f297       0x50 ./obj/local/armeabi-v7a/h264_dec_lib.a(tables.rel.rvds.o)
                0x0009f297                gpu1_table_total_zero_11to15
 .constdata     0x0009f2e7       0x40 ./obj/local/armeabi-v7a/h264_dec_lib.a(tables.rel.rvds.o)
                0x0009f2e7                gpuc_TableRunBefore
 *fill*         0x0009f327        0x1 00
 .constdata     0x0009f328      0x260 ./obj/local/armeabi-v7a/h264_dec_lib.a(tables.rel.rvds.o)
                0x0009f328                gpu2_code_gx
 .constdata     0x0009f588      0x100 ./obj/local/armeabi-v7a/h264_dec_lib.a(tables.rel.rvds.o)
                0x0009f588                gpu1_cav_chromdc_vld
 .constdata     0x0009f688       0x12 ./obj/local/armeabi-v7a/h264_dec_lib.a(tables.rel.rvds.o)
                0x0009f688                gpui16_offsetNumVlcTab
 .constdata     0x0009f69a       0x10 ./obj/local/armeabi-v7a/h264_dec_lib.a(tables.rel.rvds.o)
                0x0009f69a                gpu1_total_coeff_fn_ptr_offset
 .constdata     0x0009f6aa       0x54 ./obj/local/armeabi-v7a/h264_dec_lib.a(tables.rel.rvds.o)
                0x0009f6aa                gpi2_trailing_one_level
 .constdata     0x0009f6fe        0x9 ./obj/local/armeabi-v7a/h264_dec_lib.a(tables.rel.rvds.o)
                0x0009f6fe                g_pu1_intra_pred_err_code
 .constdata     0x0009f707        0x1 ./obj/local/armeabi-v7a/h264_dec_lib.a(tables.rel.rvds.o)
                0x0009f707                g_int_tbl_end
 .constdata     0x0009f708       0x1b ./obj/local/armeabi-v7a/h264_dec_lib.a(tables.rel.rvds.o)
                0x0009f708                gpuc_sei_fld_usage
 .constdata     0x0009f723        0x1 ./obj/local/armeabi-v7a/h264_dec_lib.a(tables.rel.rvds.o)
                0x0009f723                g_ext_tbl_end
 .constdata     0x0009f724       0x10 ./obj/local/armeabi-v7a/h264_dec_lib.a(arm_doIntraPredNon4x4.rel.rvds.o)
 .constdata     0x0009f734       0x18 ./obj/local/armeabi-v7a/h264_dec_lib.a(arm_idct.rel.rvds.o)
 .constdata     0x0009f74c        0x4 ./obj/local/armeabi-v7a/mpeg4_asp_dec_lib.a(globals.o)
                0x0009f74c                g_imp4d_cxa8_Delta0
 .constdata     0x0009f750        0x4 ./obj/local/armeabi-v7a/mpeg4_asp_dec_lib.a(globals.o)
                0x0009f750                g_imp4d_cxa8_Delta1
 .constdata     0x0009f754       0x2a ./obj/local/armeabi-v7a/mpeg4_asp_dec_lib.a(globals.o)
                0x0009f754                g_imp4d_cxa8_LmaxIntra
 .constdata     0x0009f77e       0x52 ./obj/local/armeabi-v7a/mpeg4_asp_dec_lib.a(globals.o)
                0x0009f77e                g_imp4d_cxa8_LmaxInter
 .constdata     0x0009f7d0       0x38 ./obj/local/armeabi-v7a/mpeg4_asp_dec_lib.a(globals.o)
                0x0009f7d0                g_imp4d_cxa8_RmaxIntra
 .constdata     0x0009f808       0x1a ./obj/local/armeabi-v7a/mpeg4_asp_dec_lib.a(globals.o)
                0x0009f808                g_imp4d_cxa8_RmaxInter
 .constdata     0x0009f822        0x8 ./obj/local/armeabi-v7a/mpeg4_asp_dec_lib.a(globals.o)
                0x0009f822                g_imp4d_cxa8_IntraDcVlcSwitch
 .constdata     0x0009f82a        0x4 ./obj/local/armeabi-v7a/mpeg4_asp_dec_lib.a(globals.o)
                0x0009f82a                g_imp4d_cxa8_Dquant
 .constdata     0x0009f82e       0x40 ./obj/local/armeabi-v7a/mpeg4_asp_dec_lib.a(globals.o)
                0x0009f82e                g_imp4d_cxa8_InvHorizontal
 .constdata     0x0009f86e       0x40 ./obj/local/armeabi-v7a/mpeg4_asp_dec_lib.a(globals.o)
                0x0009f86e                g_imp4d_cxa8_InvVertical
 .constdata     0x0009f8ae       0x40 ./obj/local/armeabi-v7a/mpeg4_asp_dec_lib.a(globals.o)
                0x0009f8ae                g_imp4d_cxa8_InvZigZag
 .constdata     0x0009f8ee       0x62 ./obj/local/armeabi-v7a/mpeg4_asp_dec_lib.a(globals.o)
                0x0009f8ee                g_imp4d_cxa8_divArray_dc
 .constdata     0x0009f950       0x62 ./obj/local/armeabi-v7a/mpeg4_asp_dec_lib.a(globals.o)
                0x0009f950                g_imp4d_cxa8_divArray1_dc
 .constdata     0x0009f9b2       0x40 ./obj/local/armeabi-v7a/mpeg4_asp_dec_lib.a(globals.o)
                0x0009f9b2                g_imp4d_cxa8_divArray_ac
 .constdata     0x0009f9f2       0x40 ./obj/local/armeabi-v7a/mpeg4_asp_dec_lib.a(globals.o)
                0x0009f9f2                g_imp4d_cxa8_divArray1_ac
 *fill*         0x0009fa32        0x2 00
 .constdata     0x0009fa34       0xc8 ./obj/local/armeabi-v7a/mpeg4_asp_dec_lib.a(globals.o)
                0x0009fa34                g_imp4d_cxa8_div_n_round_dc
 *fill*         0x0009fafc        0x4 00
 .constdata     0x0009fb00       0x40 ./obj/local/armeabi-v7a/mpeg4_asp_dec_lib.a(globals.o)
                0x0009fb00                g_imp4d_cxa8_DefaultWeightingMatrix0
 .constdata     0x0009fb40       0x40 ./obj/local/armeabi-v7a/mpeg4_asp_dec_lib.a(globals.o)
                0x0009fb40                g_imp4d_cxa8_DefaultWeightingMatrix1
 .constdata     0x0009fb80        0x4 ./obj/local/armeabi-v7a/mpeg4_asp_dec_lib.a(globals.o)
                0x0009fb80                g_imp4d_cxa8_MVDCHR_Table1
 .constdata     0x0009fb84       0x10 ./obj/local/armeabi-v7a/mpeg4_asp_dec_lib.a(globals.o)
                0x0009fb84                g_imp4d_cxa8_MVDCHR_Table4
 .constdata     0x0009fb94       0x10 ./obj/local/armeabi-v7a/mpeg4_asp_dec_lib.a(globals.o)
                0x0009fb94                g_imp4d_cxa8_SourceFormat_TABLE1
 .constdata     0x0009fba4        0x8 ./obj/local/armeabi-v7a/mpeg4_asp_dec_lib.a(globals.o)
                0x0009fba4                g_imp4d_cxa8_SourceFormat_TABLE2
 .constdata     0x0009fbac        0xc ./obj/local/armeabi-v7a/mpeg4_asp_dec_lib.a(globals.o)
                0x0009fbac                g_imp4d_cxa8_BOffset
 .constdata     0x0009fbb8       0x1f ./obj/local/armeabi-v7a/mpeg4_asp_dec_lib.a(globals.o)
                0x0009fbb8                g_imp4d_cxa8_Dc_scalar_0
 .constdata     0x0009fbd7       0x1f ./obj/local/armeabi-v7a/mpeg4_asp_dec_lib.a(globals.o)
                0x0009fbd7                g_imp4d_cxa8_Dc_scalar_1
 *fill*         0x0009fbf6        0x2 00
 .constdata     0x0009fbf8      0x100 ./obj/local/armeabi-v7a/mpeg4_asp_dec_lib.a(globals.o)
                0x0009fbf8                g_imp4d_cxa8_PreIdctScale
 .constdata     0x0009fcf8        0x8 ./obj/local/armeabi-v7a/mpeg4_asp_dec_lib.a(globals.o)
                0x0009fcf8                MvTab1
 .constdata     0x0009fd00        0x8 ./obj/local/armeabi-v7a/mpeg4_asp_dec_lib.a(globals.o)
                0x0009fd00                MvTab2
 .constdata     0x0009fd08        0x8 ./obj/local/armeabi-v7a/mpeg4_asp_dec_lib.a(globals.o)
                0x0009fd08                MvTab3
 .constdata     0x0009fd10       0x20 ./obj/local/armeabi-v7a/mpeg4_asp_dec_lib.a(globals.o)
                0x0009fd10                MvTab4
 .constdata     0x0009fd30       0x80 ./obj/local/armeabi-v7a/mpeg4_asp_dec_lib.a(globals.o)
                0x0009fd30                MvTab5
 .constdata     0x0009fdb0       0x40 ./obj/local/armeabi-v7a/mpeg4_asp_dec_lib.a(globals.o)
                0x0009fdb0                MvTab6
 .constdata     0x0009fdf0       0x20 ./obj/local/armeabi-v7a/mpeg4_asp_dec_lib.a(globals.o)
                0x0009fdf0                MvTab7
 .constdata     0x0009fe10       0x20 ./obj/local/armeabi-v7a/mpeg4_asp_dec_lib.a(globals.o)
                0x0009fe10                MvTab8
 .constdata     0x0009fe30       0x10 ./obj/local/armeabi-v7a/mpeg4_asp_dec_lib.a(globals.o)
                0x0009fe30                MvTab9
 .constdata     0x0009fe40       0x10 ./obj/local/armeabi-v7a/mpeg4_asp_dec_lib.a(globals.o)
                0x0009fe40                MvTab10
 .constdata     0x0009fe50       0x58 ./obj/local/armeabi-v7a/mpeg4_asp_dec_lib.a(globals.o)
                0x0009fe50                g_imp4d_cxa8_MVTable
 .constdata     0x0009fea8      0x100 ./obj/local/armeabi-v7a/mpeg4_asp_dec_lib.a(globals.o)
                0x0009fea8                g_imp4d_cxa8_no_of_ones
 .constdata     0x0009ffa8      0x164 ./obj/local/armeabi-v7a/mpeg4_asp_dec_lib.a(rvlc_tables.o)
                0x0009ffa8                g_imp4d_cxa8_rvlc_Intra
 .constdata     0x000a010c      0x164 ./obj/local/armeabi-v7a/mpeg4_asp_dec_lib.a(rvlc_tables.o)
                0x000a010c                g_imp4d_cxa8_rvlc_Inter
 .constdata     0x000a0270        0x4 ./obj/local/armeabi-v7a/mpeg4_asp_dec_lib.a(vldecoder_tables.o)
                0x000a0270                g_imp4d_cxa8_TABmodb
 .constdata     0x000a0274        0x8 ./obj/local/armeabi-v7a/mpeg4_asp_dec_lib.a(vldecoder_tables.o)
                0x000a0274                g_imp4d_cxa8_TABmbtype
 .constdata     0x000a027c       0x16 ./obj/local/armeabi-v7a/mpeg4_asp_dec_lib.a(vldecoder_tables.o)
                0x000a027c                g_imp4d_cxa8_TABmcbpc_IVop
 .constdata     0x000a0292       0x2a ./obj/local/armeabi-v7a/mpeg4_asp_dec_lib.a(vldecoder_tables.o)
                0x000a0292                g_imp4d_cxa8_TABmcbpc_PVop
 .constdata     0x000a02bc       0x20 ./obj/local/armeabi-v7a/mpeg4_asp_dec_lib.a(vldecoder_tables.o)
                0x000a02bc                g_imp4d_cxa8_TABcbpy_intra
 .constdata     0x000a02dc       0x10 ./obj/local/armeabi-v7a/mpeg4_asp_dec_lib.a(vldecoder_tables.o)
                0x000a02dc                g_imp4d_cxa8_TABcbpy_opt_intra
 .constdata     0x000a02ec       0x10 ./obj/local/armeabi-v7a/mpeg4_asp_dec_lib.a(vldecoder_tables.o)
                0x000a02ec                g_imp4d_cxa8_TABcbpy_intra_1
 .constdata     0x000a02fc       0x40 ./obj/local/armeabi-v7a/mpeg4_asp_dec_lib.a(vldecoder_tables.o)
                0x000a02fc                g_imp4d_cxa8_TABcbpy_intra_2
 .constdata     0x000a033c       0x10 ./obj/local/armeabi-v7a/mpeg4_asp_dec_lib.a(vldecoder_tables.o)
                0x000a033c                g_imp4d_cxa8_TABcbpy_inter_1
 .constdata     0x000a034c       0x40 ./obj/local/armeabi-v7a/mpeg4_asp_dec_lib.a(vldecoder_tables.o)
                0x000a034c                g_imp4d_cxa8_TABcbpy_inter_2
 .constdata     0x000a038c       0x20 ./obj/local/armeabi-v7a/mpeg4_asp_dec_lib.a(vldecoder_tables.o)
                0x000a038c                g_imp4d_cxa8_TABcbpy_inter
 .constdata     0x000a03ac       0x42 ./obj/local/armeabi-v7a/mpeg4_asp_dec_lib.a(vldecoder_tables.o)
                0x000a03ac                g_imp4d_cxa8_TABmvd
 .constdata     0x000a03ee       0x34 ./obj/local/armeabi-v7a/mpeg4_asp_dec_lib.a(vldecoder_tables.o)
                0x000a03ee                g_imp4d_cxa8_TABdct_dc
 .constdata     0x000a0422       0x10 ./obj/local/armeabi-v7a/mpeg4_asp_dec_lib.a(vldecoder_tables.o)
                0x000a0422                Intra0
 .constdata     0x000a0432       0x60 ./obj/local/armeabi-v7a/mpeg4_asp_dec_lib.a(vldecoder_tables.o)
                0x000a0432                Intra1
 .constdata     0x000a0492       0x40 ./obj/local/armeabi-v7a/mpeg4_asp_dec_lib.a(vldecoder_tables.o)
                0x000a0492                Intra2
 .constdata     0x000a04d2       0x40 ./obj/local/armeabi-v7a/mpeg4_asp_dec_lib.a(vldecoder_tables.o)
                0x000a04d2                Intra3
 .constdata     0x000a0512       0xf0 ./obj/local/armeabi-v7a/mpeg4_asp_dec_lib.a(vldecoder_tables.o)
                0x000a0512                Intra4
 .constdata     0x000a0602       0x10 ./obj/local/armeabi-v7a/mpeg4_asp_dec_lib.a(vldecoder_tables.o)
                0x000a0602                Inter0
 .constdata     0x000a0612       0x60 ./obj/local/armeabi-v7a/mpeg4_asp_dec_lib.a(vldecoder_tables.o)
                0x000a0612                Inter1
 .constdata     0x000a0672       0x40 ./obj/local/armeabi-v7a/mpeg4_asp_dec_lib.a(vldecoder_tables.o)
                0x000a0672                Inter2
 .constdata     0x000a06b2       0x40 ./obj/local/armeabi-v7a/mpeg4_asp_dec_lib.a(vldecoder_tables.o)
                0x000a06b2                Inter3
 .constdata     0x000a06f2       0xf0 ./obj/local/armeabi-v7a/mpeg4_asp_dec_lib.a(vldecoder_tables.o)
                0x000a06f2                Inter4
 .constdata     0x000a07e2       0x20 ./obj/local/armeabi-v7a/mpeg4_asp_dec_lib.a(vldecoder_tables.o)
                0x000a07e2                g_imp4d_cxa8_RightShift
 .constdata     0x000a0802       0x20 ./obj/local/armeabi-v7a/mpeg4_asp_dec_lib.a(vldecoder_tables.o)
                0x000a0802                g_imp4d_cxa8_Subtract
 .constdata     0x000a0822       0x20 ./obj/local/armeabi-v7a/mpeg4_asp_dec_lib.a(vldecoder_tables_s2.o)
                0x000a0822                g_imp4d_cxa8_dct_dc_size
 .constdata     0x000a0842       0x54 ./obj/local/armeabi-v7a/mpeg4_asp_dec_lib.a(vldecoder_tables_s2.o)
                0x000a0842                g_imp4d_cxa8_vld_tcoef_intra_tab_stg2
 .constdata     0x000a0896       0x54 ./obj/local/armeabi-v7a/mpeg4_asp_dec_lib.a(vldecoder_tables_s2.o)
                0x000a0896                g_imp4d_cxa8_vld_tcoef_inter_tab_stg2
 .constdata     0x000a08ea      0x400 ./obj/local/armeabi-v7a/mpeg4_asp_dec_lib.a(vldecoder_tables_s2.o)
                0x000a08ea                g_imp4d_cxa8_vld_tcoef_intra_tab_stg1
 .constdata     0x000a0cea      0x400 ./obj/local/armeabi-v7a/mpeg4_asp_dec_lib.a(vldecoder_tables_s2.o)
                0x000a0cea                g_imp4d_cxa8_vld_tcoef_inter_tab_stg1
 .constdata     0x000a10ea       0x48 ./obj/local/armeabi-v7a/mpeg4_asp_dec_lib.a(vldecoder_tables_s2.o)
                0x000a10ea                g_imp4d_cxa8_mcbpc_ppic_tab
 .constdata     0x000a1132       0x1c ./obj/local/armeabi-v7a/mpeg4_asp_dec_lib.a(vldecoder_tables_s2.o)
                0x000a1132                g_imp4d_cxa8_cbpy_tab

.rodata1
 *(.rodata1)

.ARM.extab      0x000a1150       0x54
 *(.ARM.extab* .gnu.linkonce.armextab.*)
 .ARM.extab.text.custom_update_user_input
                0x000a1150        0x0 ./obj/local/armeabi-v7a/objs/adfreeflight/app.o
 .ARM.extab.text.custom_reset_user_input
                0x000a1150        0x0 ./obj/local/armeabi-v7a/objs/adfreeflight/app.o
 .ARM.extab.text.ardrone_tool_exit
                0x000a1150        0x0 ./obj/local/armeabi-v7a/objs/adfreeflight/app.o
 .ARM.extab.text.ardrone_tool_display_custom
                0x000a1150        0x0 ./obj/local/armeabi-v7a/objs/adfreeflight/app.o
 .ARM.extab.text.parrot_ardrone_notify_resume
                0x000a1150        0x0 ./obj/local/armeabi-v7a/objs/adfreeflight/app.o
 .ARM.extab.text.JNI_OnUnload
                0x000a1150        0x0 ./obj/local/armeabi-v7a/objs/adfreeflight/app.o
 .ARM.extab.text.JNI_OnLoad
                0x000a1150        0x0 ./obj/local/armeabi-v7a/objs/adfreeflight/app.o
 .ARM.extab.text.parrot_ardrone_notify_pause
                0x000a1150        0x0 ./obj/local/armeabi-v7a/objs/adfreeflight/app.o
 .ARM.extab.text.parrot_ardrone_notify_exit
                0x000a1150        0x0 ./obj/local/armeabi-v7a/objs/adfreeflight/app.o
 .ARM.extab.text.parrot_ardrone_notify_start
                0x000a1150        0x0 ./obj/local/armeabi-v7a/objs/adfreeflight/app.o
 .ARM.extab.text.thread_app_main
                0x000a1150        0x0 ./obj/local/armeabi-v7a/objs/adfreeflight/app.o
 .ARM.extab.text.video_stage_io_file_stage_close
                0x000a1150        0x0 ./obj/local/armeabi-v7a/objs/adfreeflight/video_stage_io_file.o
 .ARM.extab.text.video_stage_io_file_stage_transform
                0x000a1150        0x0 ./obj/local/armeabi-v7a/objs/adfreeflight/video_stage_io_file.o
 .ARM.extab.text.video_stage_io_file_stage_open
                0x000a1150        0x0 ./obj/local/armeabi-v7a/objs/adfreeflight/video_stage_io_file.o
 .ARM.extab.text.setEnvironmentInfo
                0x000a1150        0x0 ./obj/local/armeabi-v7a/objs/adfreeflight/hardware_capabilites.o
 .ARM.extab.text._parseDeviceString
                0x000a1150        0x0 ./obj/local/armeabi-v7a/objs/adfreeflight/hardware_capabilites.o
 .ARM.extab.text._getCurrentDevice
                0x000a1150        0x0 ./obj/local/armeabi-v7a/objs/adfreeflight/hardware_capabilites.o
 .ARM.extab.text.printDeviceInfos
                0x000a1150        0x0 ./obj/local/armeabi-v7a/objs/adfreeflight/hardware_capabilites.o
 .ARM.extab.text.getDeviceVideoCapabilites
                0x000a1150        0x0 ./obj/local/armeabi-v7a/objs/adfreeflight/hardware_capabilites.o
 .ARM.extab.text.parrot_ardrone_ctrl_has_ctrl_status
                0x000a1150        0x0 ./obj/local/armeabi-v7a/objs/adfreeflight/Controller/ardrone_controller.o
 .ARM.extab.text.parrot_ardrone_ctrl_get_battery_level
                0x000a1150        0x0 ./obj/local/armeabi-v7a/objs/adfreeflight/Controller/ardrone_controller.o
 .ARM.extab.text.parrot_ardrone_ctrl_get_altitude
                0x000a1150        0x0 ./obj/local/armeabi-v7a/objs/adfreeflight/Controller/ardrone_controller.o
 .ARM.extab.text.parrot_ardrone_ctrl_get_yaw_max_angle
                0x000a1150        0x0 ./obj/local/armeabi-v7a/objs/adfreeflight/Controller/ardrone_controller.o
 .ARM.extab.text.parrot_ardrone_ctrl_get_tilt_max_angle
                0x000a1150        0x0 ./obj/local/armeabi-v7a/objs/adfreeflight/Controller/ardrone_controller.o
 .ARM.extab.text.parrot_ardrone_ctrl_get_vert_speed_max
                0x000a1150        0x0 ./obj/local/armeabi-v7a/objs/adfreeflight/Controller/ardrone_controller.o
 .ARM.extab.text.parrot_ardrone_ctrl_is_outdoor_mode
                0x000a1150        0x0 ./obj/local/armeabi-v7a/objs/adfreeflight/Controller/ardrone_controller.o
 .ARM.extab.text.parrot_ardrone_ctrl_set_outdoor_mode
                0x000a1150        0x0 ./obj/local/armeabi-v7a/objs/adfreeflight/Controller/ardrone_controller.o
 .ARM.extab.text.parrot_ardrone_ctrl_set_flat_trim
                0x000a1150        0x0 ./obj/local/armeabi-v7a/objs/adfreeflight/Controller/ardrone_controller.o
 .ARM.extab.text.parrot_ardrone_ctrl_switch_camera
                0x000a1150        0x0 ./obj/local/armeabi-v7a/objs/adfreeflight/Controller/ardrone_controller.o
 .ARM.extab.text.parrot_ardrone_ctrl_set_vert_speed_max
                0x000a1150        0x0 ./obj/local/armeabi-v7a/objs/adfreeflight/Controller/ardrone_controller.o
 .ARM.extab.text.parrot_ardrone_ctrl_set_tilt_max_angle
                0x000a1150        0x0 ./obj/local/armeabi-v7a/objs/adfreeflight/Controller/ardrone_controller.o
 .ARM.extab.text.parrot_ardrone_ctrl_set_yaw_max_angle
                0x000a1150        0x0 ./obj/local/armeabi-v7a/objs/adfreeflight/Controller/ardrone_controller.o
 .ARM.extab.text.parrot_ardrone_ctrl_set_pitch
                0x000a1150        0x0 ./obj/local/armeabi-v7a/objs/adfreeflight/Controller/ardrone_controller.o
 .ARM.extab.text.parrot_ardrone_ctrl_set_roll
                0x000a1150        0x0 ./obj/local/armeabi-v7a/objs/adfreeflight/Controller/ardrone_controller.o
 .ARM.extab.text.parrot_ardrone_ctrl_set_gaz
                0x000a1150        0x0 ./obj/local/armeabi-v7a/objs/adfreeflight/Controller/ardrone_controller.o
 .ARM.extab.text.parrot_ardrone_ctrl_set_yaw
                0x000a1150        0x0 ./obj/local/armeabi-v7a/objs/adfreeflight/Controller/ardrone_controller.o
 .ARM.extab.text.parrot_ardrone_ctrl_set_command_flag
                0x000a1150        0x0 ./obj/local/armeabi-v7a/objs/adfreeflight/Controller/ardrone_controller.o
 .ARM.extab.text.parrot_ardrone_ctrl_emergency
                0x000a1150        0x0 ./obj/local/armeabi-v7a/objs/adfreeflight/Controller/ardrone_controller.o
 .ARM.extab.text.parrot_ardrone_ctrl_take_off
                0x000a1150        0x0 ./obj/local/armeabi-v7a/objs/adfreeflight/Controller/ardrone_controller.o
 .ARM.extab.text.inputYaw
                0x000a1150        0x0 ./obj/local/armeabi-v7a/objs/adfreeflight/ControlData.o
 .ARM.extab.text.inputGaz
                0x000a1150        0x0 ./obj/local/armeabi-v7a/objs/adfreeflight/ControlData.o
 .ARM.extab.text.inputPitch
                0x000a1150        0x0 ./obj/local/armeabi-v7a/objs/adfreeflight/ControlData.o
 .ARM.extab.text.inputRoll
                0x000a1150        0x0 ./obj/local/armeabi-v7a/objs/adfreeflight/ControlData.o
 .ARM.extab.text.resetControlData
                0x000a1150        0x0 ./obj/local/armeabi-v7a/objs/adfreeflight/ControlData.o
 .ARM.extab.text.set_command_flag
                0x000a1150        0x0 ./obj/local/armeabi-v7a/objs/adfreeflight/ControlData.o
 .ARM.extab.text.sendControls
                0x000a1150        0x0 ./obj/local/armeabi-v7a/objs/adfreeflight/ControlData.o
 .ARM.extab.text.initControlData
                0x000a1150        0x0 ./obj/local/armeabi-v7a/objs/adfreeflight/ControlData.o
 .ARM.extab.text.setApplicationDefaultConfig
                0x000a1150        0x0 ./obj/local/armeabi-v7a/objs/adfreeflight/ControlData.o
 .ARM.extab.text.parrot_drone_proxy_onConnectionFailed
                0x000a1150        0x0 ./obj/local/armeabi-v7a/objs/adfreeflight/Callbacks/drone_proxy_callbacks.o
 .ARM.extab.text.parrot_drone_proxy_onConfigChanged
                0x000a1150        0x0 ./obj/local/armeabi-v7a/objs/adfreeflight/Callbacks/drone_proxy_callbacks.o
 .ARM.extab.text.parrot_drone_proxy_onDisconnected
                0x000a1150        0x0 ./obj/local/armeabi-v7a/objs/adfreeflight/Callbacks/drone_proxy_callbacks.o
 .ARM.extab.text.parrot_drone_proxy_onConnected
                0x000a1150        0x0 ./obj/local/armeabi-v7a/objs/adfreeflight/Callbacks/drone_proxy_callbacks.o
 .ARM.extab.text.java_set_field_int
                0x000a1150        0x0 ./obj/local/armeabi-v7a/objs/adfreeflight/Callbacks/java_callbacks.o
 .ARM.extab.text.java_set_field_bool
                0x000a1150        0x0 ./obj/local/armeabi-v7a/objs/adfreeflight/Callbacks/java_callbacks.o
 .ARM.extab.text.java_get_bool_field_value
                0x000a1150        0x0 ./obj/local/armeabi-v7a/objs/adfreeflight/Callbacks/java_callbacks.o
 .ARM.extab.text.parrot_java_callbacks_call_void_method_string
                0x000a1150        0x0 ./obj/local/armeabi-v7a/objs/adfreeflight/Callbacks/java_callbacks.o
 .ARM.extab.text.parrot_java_callbacks_call_void_method_int_int
                0x000a1150        0x0 ./obj/local/armeabi-v7a/objs/adfreeflight/Callbacks/java_callbacks.o
 .ARM.extab.text.parrot_java_callbacks_call_void_method
                0x000a1150        0x0 ./obj/local/armeabi-v7a/objs/adfreeflight/Callbacks/java_callbacks.o
 .ARM.extab.text.parrot_java_callbacks_call_void_method2
                0x000a1150        0x0 ./obj/local/armeabi-v7a/objs/adfreeflight/Callbacks/java_callbacks.o
 .ARM.extab.text.plf_get_header
                0x000a1150        0x0 ./obj/local/armeabi-v7a/objs/adfreeflight/Plf/plf.o
 .ARM.extab.text.Java_com_parrot_freeflight_drone_DroneProxy_setMagnetoEnabled
                0x000a1150        0x0 ./obj/local/armeabi-v7a/objs/adfreeflight/Stubs/drone_stub.o
 .ARM.extab.text.gpsConfigSuccess
                0x000a1150        0x0 ./obj/local/armeabi-v7a/objs/adfreeflight/Stubs/drone_stub.o
 .ARM.extab.text.Java_com_parrot_freeflight_drone_DroneProxy_setLocation
                0x000a1150        0x0 ./obj/local/armeabi-v7a/objs/adfreeflight/Stubs/drone_stub.o
 .ARM.extab.text.Java_com_parrot_freeflight_drone_DroneProxy_triggerConfigUpdateNative
                0x000a1150        0x0 ./obj/local/armeabi-v7a/objs/adfreeflight/Stubs/drone_stub.o
 .ARM.extab.text.getConfigSuccess
                0x000a1150        0x0 ./obj/local/armeabi-v7a/objs/adfreeflight/Stubs/drone_stub.o
 .ARM.extab.text.Java_com_parrot_freeflight_drone_DroneProxy_doFlip
                0x000a1150        0x0 ./obj/local/armeabi-v7a/objs/adfreeflight/Stubs/drone_stub.o
 .ARM.extab.text.Java_com_parrot_freeflight_drone_DroneProxy_calibrateMagneto
                0x000a1150        0x0 ./obj/local/armeabi-v7a/objs/adfreeflight/Stubs/drone_stub.o
 .ARM.extab.text.Java_com_parrot_freeflight_drone_DroneProxy_record
                0x000a1150        0x0 ./obj/local/armeabi-v7a/objs/adfreeflight/Stubs/drone_stub.o
 .ARM.extab.text.Java_com_parrot_freeflight_drone_DroneProxy_takePhoto
                0x000a1150        0x0 ./obj/local/armeabi-v7a/objs/adfreeflight/Stubs/drone_stub.o
 .ARM.extab.text.Java_com_parrot_freeflight_drone_DroneProxy_flatTrimNative
                0x000a1150        0x0 ./obj/local/armeabi-v7a/objs/adfreeflight/Stubs/drone_stub.o
 .ARM.extab.text.Java_com_parrot_freeflight_drone_DroneProxy_switchCamera
                0x000a1150        0x0 ./obj/local/armeabi-v7a/objs/adfreeflight/Stubs/drone_stub.o
 .ARM.extab.text.Java_com_parrot_freeflight_drone_DroneProxy_resetConfigToDefaults
                0x000a1150        0x0 ./obj/local/armeabi-v7a/objs/adfreeflight/Stubs/drone_stub.o
 .ARM.extab.text.Java_com_parrot_freeflight_drone_DroneProxy_takeConfigSnapshot
                0x000a1150        0xc ./obj/local/armeabi-v7a/objs/adfreeflight/Stubs/drone_stub.o
 .ARM.extab.text.checkErrors
                0x000a115c        0x0 ./obj/local/armeabi-v7a/objs/adfreeflight/Stubs/drone_stub.o
 .ARM.extab.text.Java_com_parrot_freeflight_drone_DroneProxy_takeNavDataSnapshot
                0x000a115c        0xc ./obj/local/armeabi-v7a/objs/adfreeflight/Stubs/drone_stub.o
 .ARM.extab.text.Java_com_parrot_freeflight_drone_DroneProxy_setDeviceOrientation
                0x000a1168        0x0 ./obj/local/armeabi-v7a/objs/adfreeflight/Stubs/drone_stub.o
 .ARM.extab.text.Java_com_parrot_freeflight_drone_DroneProxy_setCommandFlag
                0x000a1168        0x0 ./obj/local/armeabi-v7a/objs/adfreeflight/Stubs/drone_stub.o
 .ARM.extab.text.Java_com_parrot_freeflight_drone_DroneProxy_setControlValue
                0x000a1168        0x0 ./obj/local/armeabi-v7a/objs/adfreeflight/Stubs/drone_stub.o
 .ARM.extab.text.Java_com_parrot_freeflight_drone_DroneProxy_triggerEmergency
                0x000a1168        0x0 ./obj/local/armeabi-v7a/objs/adfreeflight/Stubs/drone_stub.o
 .ARM.extab.text.Java_com_parrot_freeflight_drone_DroneProxy_triggerTakeOff
                0x000a1168        0x0 ./obj/local/armeabi-v7a/objs/adfreeflight/Stubs/drone_stub.o
 .ARM.extab.text.Java_com_parrot_freeflight_drone_DroneProxy_disconnect
                0x000a1168        0x0 ./obj/local/armeabi-v7a/objs/adfreeflight/Stubs/drone_stub.o
 .ARM.extab.text.Java_com_parrot_freeflight_drone_DroneProxy_resume
                0x000a1168        0x0 ./obj/local/armeabi-v7a/objs/adfreeflight/Stubs/drone_stub.o
 .ARM.extab.text.Java_com_parrot_freeflight_drone_DroneProxy_setDefaultConfigurationNative
                0x000a1168        0x0 ./obj/local/armeabi-v7a/objs/adfreeflight/Stubs/drone_stub.o
 .ARM.extab.text.Java_com_parrot_freeflight_drone_DroneProxy_pause
                0x000a1168        0x0 ./obj/local/armeabi-v7a/objs/adfreeflight/Stubs/drone_stub.o
 .ARM.extab.text.Java_com_parrot_freeflight_drone_DroneProxy_connect
                0x000a1168        0x0 ./obj/local/armeabi-v7a/objs/adfreeflight/Stubs/drone_stub.o
 .ARM.extab.text.Java_com_parrot_freeflight_drone_DroneProxy_initNavdata
                0x000a1168        0xc ./obj/local/armeabi-v7a/objs/adfreeflight/Stubs/drone_stub.o
 .ARM.extab.text.ardrone_academy_callback_called
                0x000a1174        0x0 ./obj/local/armeabi-v7a/objs/adfreeflight/Stubs/drone_stub.o
 .ARM.extab.text.ardrone_engine_message_received
                0x000a1174        0x0 ./obj/local/armeabi-v7a/objs/adfreeflight/Stubs/drone_stub.o
 .ARM.extab.text.Java_com_parrot_freeflight_drone_DroneConfig_getDroneFamily
                0x000a1174        0x0 ./obj/local/armeabi-v7a/objs/adfreeflight/Stubs/drone_config_stub.o
 .ARM.extab.text.Java_com_parrot_freeflight_drone_DroneConfig_getFtpPortNative
                0x000a1174        0x0 ./obj/local/armeabi-v7a/objs/adfreeflight/Stubs/drone_config_stub.o
 .ARM.extab.text.Java_com_parrot_freeflight_drone_DroneConfig_getDroneHostNative
                0x000a1174        0x0 ./obj/local/armeabi-v7a/objs/adfreeflight/Stubs/drone_config_stub.o
 .ARM.extab.text.Java_com_parrot_freeflight_drone_DroneConfig_updateRecordOnUsb
                0x000a1174        0x0 ./obj/local/armeabi-v7a/objs/adfreeflight/Stubs/drone_config_stub.o
 .ARM.extab.text.Java_com_parrot_freeflight_drone_DroneConfig_updateVideoCodecNative
                0x000a1174        0x0 ./obj/local/armeabi-v7a/objs/adfreeflight/Stubs/drone_config_stub.o
 .ARM.extab.text.Java_com_parrot_freeflight_drone_DroneConfig_updateNetworkNameNative
                0x000a1174        0x0 ./obj/local/armeabi-v7a/objs/adfreeflight/Stubs/drone_config_stub.o
 .ARM.extab.text.Java_com_parrot_freeflight_drone_DroneConfig_updateDeviceTiltMax
                0x000a1174        0x0 ./obj/local/armeabi-v7a/objs/adfreeflight/Stubs/drone_config_stub.o
 .ARM.extab.text.Java_com_parrot_freeflight_drone_DroneConfig_updateTiltNative
                0x000a1174        0x0 ./obj/local/armeabi-v7a/objs/adfreeflight/Stubs/drone_config_stub.o
 .ARM.extab.text.Java_com_parrot_freeflight_drone_DroneConfig_updateVertSpeedMaxNative
                0x000a1174        0x0 ./obj/local/armeabi-v7a/objs/adfreeflight/Stubs/drone_config_stub.o
 .ARM.extab.text.Java_com_parrot_freeflight_drone_DroneConfig_updateYawSpeedMaxNative
                0x000a1174        0x0 ./obj/local/armeabi-v7a/objs/adfreeflight/Stubs/drone_config_stub.o
 .ARM.extab.text.Java_com_parrot_freeflight_drone_DroneConfig_updateOutdoorFlightNative
                0x000a1174        0x0 ./obj/local/armeabi-v7a/objs/adfreeflight/Stubs/drone_config_stub.o
 .ARM.extab.text.Java_com_parrot_freeflight_drone_DroneConfig_updateAltitudeLimit
                0x000a1174        0x0 ./obj/local/armeabi-v7a/objs/adfreeflight/Stubs/drone_config_stub.o
 .ARM.extab.text.Java_com_parrot_freeflight_drone_DroneConfig_updateOwnerMacNative
                0x000a1174        0x0 ./obj/local/armeabi-v7a/objs/adfreeflight/Stubs/drone_config_stub.o
 .ARM.extab.text.Java_com_parrot_freeflight_drone_DroneConfig_updateAdaptiveVideoNative
                0x000a1174        0x0 ./obj/local/armeabi-v7a/objs/adfreeflight/Stubs/drone_config_stub.o
 .ARM.extab.text.Java_com_parrot_freeflight_drone_DroneConfig_updateOutdoorHullNative
                0x000a1174        0x0 ./obj/local/armeabi-v7a/objs/adfreeflight/Stubs/drone_config_stub.o
 .ARM.extab.text.get_ftp_handle
                0x000a1174        0x0 ./obj/local/armeabi-v7a/objs/adfreeflight/Stubs/ftp_client_stub.o
 .ARM.extab.text.update_ftp_status_field
                0x000a1174        0x0 ./obj/local/armeabi-v7a/objs/adfreeflight/Stubs/ftp_client_stub.o
 .ARM.extab.text.update_conn_handler_field
                0x000a1174        0x0 ./obj/local/armeabi-v7a/objs/adfreeflight/Stubs/ftp_client_stub.o
 .ARM.extab.text.Java_com_parrot_ftp_FTPClient_ftpIsConnected
                0x000a1174        0x0 ./obj/local/armeabi-v7a/objs/adfreeflight/Stubs/ftp_client_stub.o
 .ARM.extab.text.wrapperCallback
                0x000a1174        0x0 ./obj/local/armeabi-v7a/objs/adfreeflight/Stubs/ftp_client_stub.o
 .ARM.extab.text.ftp_ftpGet
                0x000a1174        0x0 ./obj/local/armeabi-v7a/objs/adfreeflight/Stubs/ftp_client_stub.o
 .ARM.extab.text.Java_com_parrot_ftp_FTPClient_ftpGetSync
                0x000a1174        0x0 ./obj/local/armeabi-v7a/objs/adfreeflight/Stubs/ftp_client_stub.o
 .ARM.extab.text.Java_com_parrot_ftp_FTPClient_ftpGet
                0x000a1174        0x0 ./obj/local/armeabi-v7a/objs/adfreeflight/Stubs/ftp_client_stub.o
 .ARM.extab.text.ftp_ftpPut
                0x000a1174        0x0 ./obj/local/armeabi-v7a/objs/adfreeflight/Stubs/ftp_client_stub.o
 .ARM.extab.text.Java_com_parrot_ftp_FTPClient_ftpPutSync
                0x000a1174        0x0 ./obj/local/armeabi-v7a/objs/adfreeflight/Stubs/ftp_client_stub.o
 .ARM.extab.text.Java_com_parrot_ftp_FTPClient_ftpPut
                0x000a1174        0x0 ./obj/local/armeabi-v7a/objs/adfreeflight/Stubs/ftp_client_stub.o
 .ARM.extab.text.Java_com_parrot_ftp_FTPClient_ftpAbort
                0x000a1174        0x0 ./obj/local/armeabi-v7a/objs/adfreeflight/Stubs/ftp_client_stub.o
 .ARM.extab.text.Java_com_parrot_ftp_FTPClient_ftpDisconnect
                0x000a1174        0x0 ./obj/local/armeabi-v7a/objs/adfreeflight/Stubs/ftp_client_stub.o
 .ARM.extab.text.Java_com_parrot_ftp_FTPClient_ftpConnect
                0x000a1174        0x0 ./obj/local/armeabi-v7a/objs/adfreeflight/Stubs/ftp_client_stub.o
 .ARM.extab.text.Java_com_parrot_plf_PlfFile_getVersionNative
                0x000a1174        0x0 ./obj/local/armeabi-v7a/objs/adfreeflight/Stubs/plf_file_stub.o
 .ARM.extab.text.encoder_expand_buffer_x2_yuv420p
                0x000a1174        0x0 ./obj/local/armeabi-v7a/objs/adfreeflight/Stubs/transcoding_service_stub.o
 .ARM.extab.text.encoder_handle
                0x000a1174        0x0 ./obj/local/armeabi-v7a/objs/adfreeflight/Stubs/transcoding_service_stub.o
 .ARM.extab.text.thread_encoder
                0x000a1174        0x0 ./obj/local/armeabi-v7a/objs/adfreeflight/Stubs/transcoding_service_stub.o
 .ARM.extab.text.encoder_stage_close
                0x000a1174        0x0 ./obj/local/armeabi-v7a/objs/adfreeflight/Stubs/transcoding_service_stub.o
 .ARM.extab.text.encoder_stage_transform
                0x000a1174        0x0 ./obj/local/armeabi-v7a/objs/adfreeflight/Stubs/transcoding_service_stub.o
 .ARM.extab.text.alloc_picture
                0x000a1174        0x0 ./obj/local/armeabi-v7a/objs/adfreeflight/Stubs/transcoding_service_stub.o
 .ARM.extab.text.Java_com_parrot_freeflight_transcodeservice_TranscodingService_encoderThreadStart
                0x000a1174        0x0 ./obj/local/armeabi-v7a/objs/adfreeflight/Stubs/transcoding_service_stub.o
 .ARM.extab.text.encoderThreadResume
                0x000a1174        0x0 ./obj/local/armeabi-v7a/objs/adfreeflight/Stubs/transcoding_service_stub.o
 .ARM.extab.text.encoderThreadStop
                0x000a1174        0x0 ./obj/local/armeabi-v7a/objs/adfreeflight/Stubs/transcoding_service_stub.o
 .ARM.extab.text.encoder_stage_open
                0x000a1174        0x0 ./obj/local/armeabi-v7a/objs/adfreeflight/Stubs/transcoding_service_stub.o
 .ARM.extab.text.Java_com_parrot_freeflight_ui_gl_GLBGVideoSprite_onSurfaceChangedNative
                0x000a1174        0x0 ./obj/local/armeabi-v7a/objs/adfreeflight/Stubs/gl_bg_video_sprite_stub.o
 .ARM.extab.text.Java_com_parrot_freeflight_ui_gl_GLBGVideoSprite_getVideoFrameNative
                0x000a1174        0x0 ./obj/local/armeabi-v7a/objs/adfreeflight/Stubs/gl_bg_video_sprite_stub.o
 .ARM.extab.text.Java_com_parrot_freeflight_ui_gl_GLBGVideoSprite_onUpdateVideoTextureNative
                0x000a1174        0x0 ./obj/local/armeabi-v7a/objs/adfreeflight/Stubs/gl_bg_video_sprite_stub.o
 .ARM.extab.text.navdata_get
                0x000a1174        0x0 ./obj/local/armeabi-v7a/objs/adfreeflight/NavData/nav_data.o
 .ARM.extab.text.navdata_reset
                0x000a1174        0x0 ./obj/local/armeabi-v7a/objs/adfreeflight/NavData/nav_data.o
 .ARM.extab.text.navdata_process
                0x000a1174        0x0 ./obj/local/armeabi-v7a/objs/adfreeflight/NavData/nav_data.o
 .ARM.extab.text.navdata_release
                0x000a1174        0x0 ./obj/local/armeabi-v7a/objs/adfreeflight/NavData/nav_data.o
 .ARM.extab.text.navdata_init
                0x000a1174        0x0 ./obj/local/armeabi-v7a/objs/adfreeflight/NavData/nav_data.o
 .ARM.extab.text.parrot_video_stage_renderer_invalidate
                0x000a1174        0x0 ./obj/local/armeabi-v7a/objs/adfreeflight/Video/video_stage_renderer.o
 .ARM.extab.text.parrot_video_stage_init
                0x000a1174        0x0 ./obj/local/armeabi-v7a/objs/adfreeflight/Video/video_stage_renderer.o
 .ARM.extab.text.parrot_video_stage_deinit
                0x000a1174        0x0 ./obj/local/armeabi-v7a/objs/adfreeflight/Video/video_stage_renderer.o
 .ARM.extab.text.Java_com_parrot_freeflight_video_VideoStageRenderer_getVideoFrameNative
                0x000a1174        0x0 ./obj/local/armeabi-v7a/objs/adfreeflight/Video/video_stage_renderer.o
 .ARM.extab.text.parrot_frame_rate_init
                0x000a1174        0x0 ./obj/local/armeabi-v7a/objs/adfreeflight/Video/frame_rate.o
 .ARM.extab.text.parrot_frame_rate_on_draw_completed
                0x000a1174        0x0 ./obj/local/armeabi-v7a/objs/adfreeflight/Video/frame_rate.o
 .ARM.extab.text.close_gamepad
                0x000a1174        0x0 ./obj/local/armeabi-v7a/objs/adfreeflight/Controller/virtual_gamepad.o
 .ARM.extab.text.open_gamepad
                0x000a1174        0x0 ./obj/local/armeabi-v7a/objs/adfreeflight/Controller/virtual_gamepad.o
 .ARM.extab.text.update_gamepad
                0x000a1174        0x0 ./obj/local/armeabi-v7a/objs/adfreeflight/Controller/virtual_gamepad.o
 .ARM.extab.text.opengl_video_stage_get
                0x000a1174        0x0 ./obj/local/armeabi-v7a/objs/adfreeflight/Video/opengl_stage.o
 .ARM.extab.text.opengl_video_stage_close
                0x000a1174        0x0 ./obj/local/armeabi-v7a/objs/adfreeflight/Video/opengl_stage.o
 .ARM.extab.text.opengl_video_stage_transform
                0x000a1174        0x0 ./obj/local/armeabi-v7a/objs/adfreeflight/Video/opengl_stage.o
 .ARM.extab.text.opengl_video_stage_open
                0x000a1174        0x0 ./obj/local/armeabi-v7a/objs/adfreeflight/Video/opengl_stage.o
 .ARM.extab.text.opengl_shader_destroy
                0x000a1174        0x0 ./obj/local/armeabi-v7a/objs/adfreeflight/Video/opengl_shader.o
 .ARM.extab.text.opengl_shader_validate
                0x000a1174        0x0 ./obj/local/armeabi-v7a/objs/adfreeflight/Video/opengl_shader.o
 .ARM.extab.text.opengl_shader_link
                0x000a1174        0x0 ./obj/local/armeabi-v7a/objs/adfreeflight/Video/opengl_shader.o
 .ARM.extab.text.opengl_shader_compile
                0x000a1174        0x0 ./obj/local/armeabi-v7a/objs/adfreeflight/Video/opengl_shader.o
 .ARM.extab.text.opengl_texture_destroy
                0x000a1174        0x0 ./obj/local/armeabi-v7a/objs/adfreeflight/Video/opengl_texture.o
 .ARM.extab.text.opengl_texture_scale_compute
                0x000a1174        0xc ./obj/local/armeabi-v7a/objs/adfreeflight/Video/opengl_texture.o
 .ARM.extab.text.opengl_texture_draw
                0x000a1180        0x0 ./obj/local/armeabi-v7a/objs/adfreeflight/Video/opengl_texture.o
 .ARM.extab.text.opengl_texture_init
                0x000a1180        0x0 ./obj/local/armeabi-v7a/objs/adfreeflight/Video/opengl_texture.o
 .ARM.extab     0x000a1180        0x0 /home/n-brulez/dev/sdk/android-ndk-r7/toolchains/arm-linux-androideabi-4.4.3/prebuilt/linux-x86/bin/../lib/gcc/arm-linux-androideabi/4.4.3/libgcc.a(bpabi.o)
 .ARM.extab     0x000a1180       0x24 /home/n-brulez/dev/sdk/android-ndk-r7/toolchains/arm-linux-androideabi-4.4.3/prebuilt/linux-x86/bin/../lib/gcc/arm-linux-androideabi/4.4.3/libgcc.a(unwind-arm.o)
 .ARM.extab     0x000a11a4        0x0 /home/n-brulez/dev/sdk/android-ndk-r7/toolchains/arm-linux-androideabi-4.4.3/prebuilt/linux-x86/bin/../lib/gcc/arm-linux-androideabi/4.4.3/libgcc.a(pr-support.o)
 .ARM.extab     0x000a11a4        0x0 /home/n-brulez/dev/sdk/android-ndk-r7/toolchains/arm-linux-androideabi-4.4.3/prebuilt/linux-x86/bin/../lib/gcc/arm-linux-androideabi/4.4.3/libgcc.a(_divdi3.o)
 .ARM.extab     0x000a11a4        0x0 /home/n-brulez/dev/sdk/android-ndk-r7/toolchains/arm-linux-androideabi-4.4.3/prebuilt/linux-x86/bin/../lib/gcc/arm-linux-androideabi/4.4.3/libgcc.a(_udivdi3.o)
                0x000a11a4                __exidx_start = .

.ARM.exidx      0x000a11a4      0x3d8
 *(.ARM.exidx* .gnu.linkonce.armexidx.*)
 .ARM.exidx.text.custom_update_user_input
                0x000a11a4        0x8 ./obj/local/armeabi-v7a/objs/adfreeflight/app.o
 .ARM.exidx.text.custom_reset_user_input
                0x000a11ac        0x0 ./obj/local/armeabi-v7a/objs/adfreeflight/app.o
                                  0x8 (size before relaxing)
 .ARM.exidx.text.ardrone_tool_exit
                0x000a11ac        0x0 ./obj/local/armeabi-v7a/objs/adfreeflight/app.o
                                  0x8 (size before relaxing)
 .ARM.exidx.text.ardrone_tool_display_custom
                0x000a11ac        0x0 ./obj/local/armeabi-v7a/objs/adfreeflight/app.o
                                  0x8 (size before relaxing)
 .ARM.exidx.text.parrot_ardrone_notify_resume
                0x000a11ac        0x8 ./obj/local/armeabi-v7a/objs/adfreeflight/app.o
 .ARM.exidx.text.JNI_OnUnload
                0x000a11b4        0x0 ./obj/local/armeabi-v7a/objs/adfreeflight/app.o
                                  0x8 (size before relaxing)
 .ARM.exidx.text.JNI_OnLoad
                0x000a11b4        0x0 ./obj/local/armeabi-v7a/objs/adfreeflight/app.o
                                  0x8 (size before relaxing)
 .ARM.exidx.text.parrot_ardrone_notify_pause
                0x000a11b4        0x0 ./obj/local/armeabi-v7a/objs/adfreeflight/app.o
                                  0x8 (size before relaxing)
 .ARM.exidx.text.parrot_ardrone_notify_exit
                0x000a11b4        0x0 ./obj/local/armeabi-v7a/objs/adfreeflight/app.o
                                  0x8 (size before relaxing)
 .ARM.exidx.text.parrot_ardrone_notify_start
                0x000a11b4        0x8 ./obj/local/armeabi-v7a/objs/adfreeflight/app.o
 .ARM.exidx.text.thread_app_main
                0x000a11bc        0x8 ./obj/local/armeabi-v7a/objs/adfreeflight/app.o
 .ARM.exidx.text.video_stage_io_file_stage_close
                0x000a11c4        0x8 ./obj/local/armeabi-v7a/objs/adfreeflight/video_stage_io_file.o
 .ARM.exidx.text.video_stage_io_file_stage_transform
                0x000a11cc        0x8 ./obj/local/armeabi-v7a/objs/adfreeflight/video_stage_io_file.o
 .ARM.exidx.text.video_stage_io_file_stage_open
                0x000a11d4        0x8 ./obj/local/armeabi-v7a/objs/adfreeflight/video_stage_io_file.o
 .ARM.exidx.text.setEnvironmentInfo
                0x000a11dc        0x8 ./obj/local/armeabi-v7a/objs/adfreeflight/hardware_capabilites.o
 .ARM.exidx.text._parseDeviceString
                0x000a11e4        0x8 ./obj/local/armeabi-v7a/objs/adfreeflight/hardware_capabilites.o
 .ARM.exidx.text._getCurrentDevice
                0x000a11ec        0x8 ./obj/local/armeabi-v7a/objs/adfreeflight/hardware_capabilites.o
 .ARM.exidx.text.printDeviceInfos
                0x000a11f4        0x8 ./obj/local/armeabi-v7a/objs/adfreeflight/hardware_capabilites.o
 .ARM.exidx.text.getDeviceVideoCapabilites
                0x000a11fc        0x8 ./obj/local/armeabi-v7a/objs/adfreeflight/hardware_capabilites.o
 .ARM.exidx.text.parrot_ardrone_ctrl_has_ctrl_status
                0x000a1204        0x8 ./obj/local/armeabi-v7a/objs/adfreeflight/Controller/ardrone_controller.o
 .ARM.exidx.text.parrot_ardrone_ctrl_get_battery_level
                0x000a120c        0x0 ./obj/local/armeabi-v7a/objs/adfreeflight/Controller/ardrone_controller.o
                                  0x8 (size before relaxing)
 .ARM.exidx.text.parrot_ardrone_ctrl_get_altitude
                0x000a120c        0x0 ./obj/local/armeabi-v7a/objs/adfreeflight/Controller/ardrone_controller.o
                                  0x8 (size before relaxing)
 .ARM.exidx.text.parrot_ardrone_ctrl_get_yaw_max_angle
                0x000a120c        0x0 ./obj/local/armeabi-v7a/objs/adfreeflight/Controller/ardrone_controller.o
                                  0x8 (size before relaxing)
 .ARM.exidx.text.parrot_ardrone_ctrl_get_tilt_max_angle
                0x000a120c        0x0 ./obj/local/armeabi-v7a/objs/adfreeflight/Controller/ardrone_controller.o
                                  0x8 (size before relaxing)
 .ARM.exidx.text.parrot_ardrone_ctrl_get_vert_speed_max
                0x000a120c        0x0 ./obj/local/armeabi-v7a/objs/adfreeflight/Controller/ardrone_controller.o
                                  0x8 (size before relaxing)
 .ARM.exidx.text.parrot_ardrone_ctrl_is_outdoor_mode
                0x000a120c        0x0 ./obj/local/armeabi-v7a/objs/adfreeflight/Controller/ardrone_controller.o
                                  0x8 (size before relaxing)
 .ARM.exidx.text.parrot_ardrone_ctrl_set_outdoor_mode
                0x000a120c        0x8 ./obj/local/armeabi-v7a/objs/adfreeflight/Controller/ardrone_controller.o
 .ARM.exidx.text.parrot_ardrone_ctrl_set_flat_trim
                0x000a1214        0x8 ./obj/local/armeabi-v7a/objs/adfreeflight/Controller/ardrone_controller.o
 .ARM.exidx.text.parrot_ardrone_ctrl_switch_camera
                0x000a121c        0x0 ./obj/local/armeabi-v7a/objs/adfreeflight/Controller/ardrone_controller.o
                                  0x8 (size before relaxing)
 .ARM.exidx.text.parrot_ardrone_ctrl_set_vert_speed_max
                0x000a121c        0x8 ./obj/local/armeabi-v7a/objs/adfreeflight/Controller/ardrone_controller.o
 .ARM.exidx.text.parrot_ardrone_ctrl_set_tilt_max_angle
                0x000a1224        0x0 ./obj/local/armeabi-v7a/objs/adfreeflight/Controller/ardrone_controller.o
                                  0x8 (size before relaxing)
 .ARM.exidx.text.parrot_ardrone_ctrl_set_yaw_max_angle
                0x000a1224        0x0 ./obj/local/armeabi-v7a/objs/adfreeflight/Controller/ardrone_controller.o
                                  0x8 (size before relaxing)
 .ARM.exidx.text.parrot_ardrone_ctrl_set_pitch
                0x000a1224        0x8 ./obj/local/armeabi-v7a/objs/adfreeflight/Controller/ardrone_controller.o
 .ARM.exidx.text.parrot_ardrone_ctrl_set_roll
                0x000a122c        0x0 ./obj/local/armeabi-v7a/objs/adfreeflight/Controller/ardrone_controller.o
                                  0x8 (size before relaxing)
 .ARM.exidx.text.parrot_ardrone_ctrl_set_gaz
                0x000a122c        0x0 ./obj/local/armeabi-v7a/objs/adfreeflight/Controller/ardrone_controller.o
                                  0x8 (size before relaxing)
 .ARM.exidx.text.parrot_ardrone_ctrl_set_yaw
                0x000a122c        0x0 ./obj/local/armeabi-v7a/objs/adfreeflight/Controller/ardrone_controller.o
                                  0x8 (size before relaxing)
 .ARM.exidx.text.parrot_ardrone_ctrl_set_command_flag
                0x000a122c        0x0 ./obj/local/armeabi-v7a/objs/adfreeflight/Controller/ardrone_controller.o
                                  0x8 (size before relaxing)
 .ARM.exidx.text.parrot_ardrone_ctrl_emergency
                0x000a122c        0x0 ./obj/local/armeabi-v7a/objs/adfreeflight/Controller/ardrone_controller.o
                                  0x8 (size before relaxing)
 .ARM.exidx.text.parrot_ardrone_ctrl_take_off
                0x000a122c        0x0 ./obj/local/armeabi-v7a/objs/adfreeflight/Controller/ardrone_controller.o
                                  0x8 (size before relaxing)
 .ARM.exidx.text.inputYaw
                0x000a122c        0x8 ./obj/local/armeabi-v7a/objs/adfreeflight/ControlData.o
 .ARM.exidx.text.inputGaz
                0x000a1234        0x0 ./obj/local/armeabi-v7a/objs/adfreeflight/ControlData.o
                                  0x8 (size before relaxing)
 .ARM.exidx.text.inputPitch
                0x000a1234        0x0 ./obj/local/armeabi-v7a/objs/adfreeflight/ControlData.o
                                  0x8 (size before relaxing)
 .ARM.exidx.text.inputRoll
                0x000a1234        0x0 ./obj/local/armeabi-v7a/objs/adfreeflight/ControlData.o
                                  0x8 (size before relaxing)
 .ARM.exidx.text.resetControlData
                0x000a1234        0x8 ./obj/local/armeabi-v7a/objs/adfreeflight/ControlData.o
 .ARM.exidx.text.set_command_flag
                0x000a123c        0x8 ./obj/local/armeabi-v7a/objs/adfreeflight/ControlData.o
 .ARM.exidx.text.sendControls
                0x000a1244        0x8 ./obj/local/armeabi-v7a/objs/adfreeflight/ControlData.o
 .ARM.exidx.text.initControlData
                0x000a124c        0x8 ./obj/local/armeabi-v7a/objs/adfreeflight/ControlData.o
 .ARM.exidx.text.setApplicationDefaultConfig
                0x000a1254        0x0 ./obj/local/armeabi-v7a/objs/adfreeflight/ControlData.o
                                  0x8 (size before relaxing)
 .ARM.exidx.text.parrot_drone_proxy_onConnectionFailed
                0x000a1254        0x8 ./obj/local/armeabi-v7a/objs/adfreeflight/Callbacks/drone_proxy_callbacks.o
 .ARM.exidx.text.parrot_drone_proxy_onConfigChanged
                0x000a125c        0x8 ./obj/local/armeabi-v7a/objs/adfreeflight/Callbacks/drone_proxy_callbacks.o
 .ARM.exidx.text.parrot_drone_proxy_onDisconnected
                0x000a1264        0x0 ./obj/local/armeabi-v7a/objs/adfreeflight/Callbacks/drone_proxy_callbacks.o
                                  0x8 (size before relaxing)
 .ARM.exidx.text.parrot_drone_proxy_onConnected
                0x000a1264        0x0 ./obj/local/armeabi-v7a/objs/adfreeflight/Callbacks/drone_proxy_callbacks.o
                                  0x8 (size before relaxing)
 .ARM.exidx.text.java_set_field_int
                0x000a1264        0x8 ./obj/local/armeabi-v7a/objs/adfreeflight/Callbacks/java_callbacks.o
 .ARM.exidx.text.java_set_field_bool
                0x000a126c        0x0 ./obj/local/armeabi-v7a/objs/adfreeflight/Callbacks/java_callbacks.o
                                  0x8 (size before relaxing)
 .ARM.exidx.text.java_get_bool_field_value
                0x000a126c        0x8 ./obj/local/armeabi-v7a/objs/adfreeflight/Callbacks/java_callbacks.o
 .ARM.exidx.text.parrot_java_callbacks_call_void_method_string
                0x000a1274        0x8 ./obj/local/armeabi-v7a/objs/adfreeflight/Callbacks/java_callbacks.o
 .ARM.exidx.text.parrot_java_callbacks_call_void_method_int_int
                0x000a127c        0x8 ./obj/local/armeabi-v7a/objs/adfreeflight/Callbacks/java_callbacks.o
 .ARM.exidx.text.parrot_java_callbacks_call_void_method
                0x000a1284        0x8 ./obj/local/armeabi-v7a/objs/adfreeflight/Callbacks/java_callbacks.o
 .ARM.exidx.text.parrot_java_callbacks_call_void_method2
                0x000a128c        0x8 ./obj/local/armeabi-v7a/objs/adfreeflight/Callbacks/java_callbacks.o
 .ARM.exidx.text.plf_get_header
                0x000a1294        0x8 ./obj/local/armeabi-v7a/objs/adfreeflight/Plf/plf.o
 .ARM.exidx.text.Java_com_parrot_freeflight_drone_DroneProxy_setMagnetoEnabled
                0x000a129c        0x8 ./obj/local/armeabi-v7a/objs/adfreeflight/Stubs/drone_stub.o
 .ARM.exidx.text.gpsConfigSuccess
                0x000a12a4        0x0 ./obj/local/armeabi-v7a/objs/adfreeflight/Stubs/drone_stub.o
                                  0x8 (size before relaxing)
 .ARM.exidx.text.Java_com_parrot_freeflight_drone_DroneProxy_setLocation
                0x000a12a4        0x8 ./obj/local/armeabi-v7a/objs/adfreeflight/Stubs/drone_stub.o
 .ARM.exidx.text.Java_com_parrot_freeflight_drone_DroneProxy_triggerConfigUpdateNative
                0x000a12ac        0x8 ./obj/local/armeabi-v7a/objs/adfreeflight/Stubs/drone_stub.o
 .ARM.exidx.text.getConfigSuccess
                0x000a12b4        0x0 ./obj/local/armeabi-v7a/objs/adfreeflight/Stubs/drone_stub.o
                                  0x8 (size before relaxing)
 .ARM.exidx.text.Java_com_parrot_freeflight_drone_DroneProxy_doFlip
                0x000a12b4        0x8 ./obj/local/armeabi-v7a/objs/adfreeflight/Stubs/drone_stub.o
 .ARM.exidx.text.Java_com_parrot_freeflight_drone_DroneProxy_calibrateMagneto
                0x000a12bc        0x8 ./obj/local/armeabi-v7a/objs/adfreeflight/Stubs/drone_stub.o
 .ARM.exidx.text.Java_com_parrot_freeflight_drone_DroneProxy_record
                0x000a12c4        0x0 ./obj/local/armeabi-v7a/objs/adfreeflight/Stubs/drone_stub.o
                                  0x8 (size before relaxing)
 .ARM.exidx.text.Java_com_parrot_freeflight_drone_DroneProxy_takePhoto
                0x000a12c4        0x0 ./obj/local/armeabi-v7a/objs/adfreeflight/Stubs/drone_stub.o
                                  0x8 (size before relaxing)
 .ARM.exidx.text.Java_com_parrot_freeflight_drone_DroneProxy_flatTrimNative
                0x000a12c4        0x0 ./obj/local/armeabi-v7a/objs/adfreeflight/Stubs/drone_stub.o
                                  0x8 (size before relaxing)
 .ARM.exidx.text.Java_com_parrot_freeflight_drone_DroneProxy_switchCamera
                0x000a12c4        0x0 ./obj/local/armeabi-v7a/objs/adfreeflight/Stubs/drone_stub.o
                                  0x8 (size before relaxing)
 .ARM.exidx.text.Java_com_parrot_freeflight_drone_DroneProxy_resetConfigToDefaults
                0x000a12c4        0x8 ./obj/local/armeabi-v7a/objs/adfreeflight/Stubs/drone_stub.o
 .ARM.exidx.text.Java_com_parrot_freeflight_drone_DroneProxy_takeConfigSnapshot
                0x000a12cc        0x8 ./obj/local/armeabi-v7a/objs/adfreeflight/Stubs/drone_stub.o
 .ARM.exidx.text.checkErrors
                0x000a12d4        0x8 ./obj/local/armeabi-v7a/objs/adfreeflight/Stubs/drone_stub.o
 .ARM.exidx.text.Java_com_parrot_freeflight_drone_DroneProxy_takeNavDataSnapshot
                0x000a12dc        0x8 ./obj/local/armeabi-v7a/objs/adfreeflight/Stubs/drone_stub.o
 .ARM.exidx.text.Java_com_parrot_freeflight_drone_DroneProxy_setDeviceOrientation
                0x000a12e4        0x8 ./obj/local/armeabi-v7a/objs/adfreeflight/Stubs/drone_stub.o
 .ARM.exidx.text.Java_com_parrot_freeflight_drone_DroneProxy_setCommandFlag
                0x000a12ec        0x0 ./obj/local/armeabi-v7a/objs/adfreeflight/Stubs/drone_stub.o
                                  0x8 (size before relaxing)
 .ARM.exidx.text.Java_com_parrot_freeflight_drone_DroneProxy_setControlValue
                0x000a12ec        0x0 ./obj/local/armeabi-v7a/objs/adfreeflight/Stubs/drone_stub.o
                                  0x8 (size before relaxing)
 .ARM.exidx.text.Java_com_parrot_freeflight_drone_DroneProxy_triggerEmergency
                0x000a12ec        0x0 ./obj/local/armeabi-v7a/objs/adfreeflight/Stubs/drone_stub.o
                                  0x8 (size before relaxing)
 .ARM.exidx.text.Java_com_parrot_freeflight_drone_DroneProxy_triggerTakeOff
                0x000a12ec        0x0 ./obj/local/armeabi-v7a/objs/adfreeflight/Stubs/drone_stub.o
                                  0x8 (size before relaxing)
 .ARM.exidx.text.Java_com_parrot_freeflight_drone_DroneProxy_disconnect
                0x000a12ec        0x0 ./obj/local/armeabi-v7a/objs/adfreeflight/Stubs/drone_stub.o
                                  0x8 (size before relaxing)
 .ARM.exidx.text.Java_com_parrot_freeflight_drone_DroneProxy_resume
                0x000a12ec        0x0 ./obj/local/armeabi-v7a/objs/adfreeflight/Stubs/drone_stub.o
                                  0x8 (size before relaxing)
 .ARM.exidx.text.Java_com_parrot_freeflight_drone_DroneProxy_setDefaultConfigurationNative
                0x000a12ec        0x0 ./obj/local/armeabi-v7a/objs/adfreeflight/Stubs/drone_stub.o
                                  0x8 (size before relaxing)
 .ARM.exidx.text.Java_com_parrot_freeflight_drone_DroneProxy_pause
                0x000a12ec        0x0 ./obj/local/armeabi-v7a/objs/adfreeflight/Stubs/drone_stub.o
                                  0x8 (size before relaxing)
 .ARM.exidx.text.Java_com_parrot_freeflight_drone_DroneProxy_connect
                0x000a12ec        0x8 ./obj/local/armeabi-v7a/objs/adfreeflight/Stubs/drone_stub.o
 .ARM.exidx.text.Java_com_parrot_freeflight_drone_DroneProxy_initNavdata
                0x000a12f4        0x8 ./obj/local/armeabi-v7a/objs/adfreeflight/Stubs/drone_stub.o
 .ARM.exidx.text.ardrone_academy_callback_called
                0x000a12fc        0x8 ./obj/local/armeabi-v7a/objs/adfreeflight/Stubs/drone_stub.o
 .ARM.exidx.text.ardrone_engine_message_received
                0x000a1304        0x8 ./obj/local/armeabi-v7a/objs/adfreeflight/Stubs/drone_stub.o
 .ARM.exidx.text.Java_com_parrot_freeflight_drone_DroneConfig_getDroneFamily
                0x000a130c        0x8 ./obj/local/armeabi-v7a/objs/adfreeflight/Stubs/drone_config_stub.o
 .ARM.exidx.text.Java_com_parrot_freeflight_drone_DroneConfig_getFtpPortNative
                0x000a1314        0x0 ./obj/local/armeabi-v7a/objs/adfreeflight/Stubs/drone_config_stub.o
                                  0x8 (size before relaxing)
 .ARM.exidx.text.Java_com_parrot_freeflight_drone_DroneConfig_getDroneHostNative
                0x000a1314        0x8 ./obj/local/armeabi-v7a/objs/adfreeflight/Stubs/drone_config_stub.o
 .ARM.exidx.text.Java_com_parrot_freeflight_drone_DroneConfig_updateRecordOnUsb
                0x000a131c        0x0 ./obj/local/armeabi-v7a/objs/adfreeflight/Stubs/drone_config_stub.o
                                  0x8 (size before relaxing)
 .ARM.exidx.text.Java_com_parrot_freeflight_drone_DroneConfig_updateVideoCodecNative
                0x000a131c        0x8 ./obj/local/armeabi-v7a/objs/adfreeflight/Stubs/drone_config_stub.o
 .ARM.exidx.text.Java_com_parrot_freeflight_drone_DroneConfig_updateNetworkNameNative
                0x000a1324        0x0 ./obj/local/armeabi-v7a/objs/adfreeflight/Stubs/drone_config_stub.o
                                  0x8 (size before relaxing)
 .ARM.exidx.text.Java_com_parrot_freeflight_drone_DroneConfig_updateDeviceTiltMax
                0x000a1324        0x8 ./obj/local/armeabi-v7a/objs/adfreeflight/Stubs/drone_config_stub.o
 .ARM.exidx.text.Java_com_parrot_freeflight_drone_DroneConfig_updateTiltNative
                0x000a132c        0x8 ./obj/local/armeabi-v7a/objs/adfreeflight/Stubs/drone_config_stub.o
 .ARM.exidx.text.Java_com_parrot_freeflight_drone_DroneConfig_updateVertSpeedMaxNative
                0x000a1334        0x0 ./obj/local/armeabi-v7a/objs/adfreeflight/Stubs/drone_config_stub.o
                                  0x8 (size before relaxing)
 .ARM.exidx.text.Java_com_parrot_freeflight_drone_DroneConfig_updateYawSpeedMaxNative
                0x000a1334        0x0 ./obj/local/armeabi-v7a/objs/adfreeflight/Stubs/drone_config_stub.o
                                  0x8 (size before relaxing)
 .ARM.exidx.text.Java_com_parrot_freeflight_drone_DroneConfig_updateOutdoorFlightNative
                0x000a1334        0x0 ./obj/local/armeabi-v7a/objs/adfreeflight/Stubs/drone_config_stub.o
                                  0x8 (size before relaxing)
 .ARM.exidx.text.Java_com_parrot_freeflight_drone_DroneConfig_updateAltitudeLimit
                0x000a1334        0x8 ./obj/local/armeabi-v7a/objs/adfreeflight/Stubs/drone_config_stub.o
 .ARM.exidx.text.Java_com_parrot_freeflight_drone_DroneConfig_updateOwnerMacNative
                0x000a133c        0x8 ./obj/local/armeabi-v7a/objs/adfreeflight/Stubs/drone_config_stub.o
 .ARM.exidx.text.Java_com_parrot_freeflight_drone_DroneConfig_updateAdaptiveVideoNative
                0x000a1344        0x0 ./obj/local/armeabi-v7a/objs/adfreeflight/Stubs/drone_config_stub.o
                                  0x8 (size before relaxing)
 .ARM.exidx.text.Java_com_parrot_freeflight_drone_DroneConfig_updateOutdoorHullNative
                0x000a1344        0x0 ./obj/local/armeabi-v7a/objs/adfreeflight/Stubs/drone_config_stub.o
                                  0x8 (size before relaxing)
 .ARM.exidx.text.get_ftp_handle
                0x000a1344        0x0 ./obj/local/armeabi-v7a/objs/adfreeflight/Stubs/ftp_client_stub.o
                                  0x8 (size before relaxing)
 .ARM.exidx.text.update_ftp_status_field
                0x000a1344        0x8 ./obj/local/armeabi-v7a/objs/adfreeflight/Stubs/ftp_client_stub.o
 .ARM.exidx.text.update_conn_handler_field
                0x000a134c        0x8 ./obj/local/armeabi-v7a/objs/adfreeflight/Stubs/ftp_client_stub.o
 .ARM.exidx.text.Java_com_parrot_ftp_FTPClient_ftpIsConnected
                0x000a1354        0x8 ./obj/local/armeabi-v7a/objs/adfreeflight/Stubs/ftp_client_stub.o
 .ARM.exidx.text.wrapperCallback
                0x000a135c        0x8 ./obj/local/armeabi-v7a/objs/adfreeflight/Stubs/ftp_client_stub.o
 .ARM.exidx.text.ftp_ftpGet
                0x000a1364        0x8 ./obj/local/armeabi-v7a/objs/adfreeflight/Stubs/ftp_client_stub.o
 .ARM.exidx.text.Java_com_parrot_ftp_FTPClient_ftpGetSync
                0x000a136c        0x8 ./obj/local/armeabi-v7a/objs/adfreeflight/Stubs/ftp_client_stub.o
 .ARM.exidx.text.Java_com_parrot_ftp_FTPClient_ftpGet
                0x000a1374        0x8 ./obj/local/armeabi-v7a/objs/adfreeflight/Stubs/ftp_client_stub.o
 .ARM.exidx.text.ftp_ftpPut
                0x000a137c        0x8 ./obj/local/armeabi-v7a/objs/adfreeflight/Stubs/ftp_client_stub.o
 .ARM.exidx.text.Java_com_parrot_ftp_FTPClient_ftpPutSync
                0x000a1384        0x8 ./obj/local/armeabi-v7a/objs/adfreeflight/Stubs/ftp_client_stub.o
 .ARM.exidx.text.Java_com_parrot_ftp_FTPClient_ftpPut
                0x000a138c        0x8 ./obj/local/armeabi-v7a/objs/adfreeflight/Stubs/ftp_client_stub.o
 .ARM.exidx.text.Java_com_parrot_ftp_FTPClient_ftpAbort
                0x000a1394        0x8 ./obj/local/armeabi-v7a/objs/adfreeflight/Stubs/ftp_client_stub.o
 .ARM.exidx.text.Java_com_parrot_ftp_FTPClient_ftpDisconnect
                0x000a139c        0x8 ./obj/local/armeabi-v7a/objs/adfreeflight/Stubs/ftp_client_stub.o
 .ARM.exidx.text.Java_com_parrot_ftp_FTPClient_ftpConnect
                0x000a13a4        0x8 ./obj/local/armeabi-v7a/objs/adfreeflight/Stubs/ftp_client_stub.o
 .ARM.exidx.text.Java_com_parrot_plf_PlfFile_getVersionNative
                0x000a13ac        0x8 ./obj/local/armeabi-v7a/objs/adfreeflight/Stubs/plf_file_stub.o
 .ARM.exidx.text.encoder_expand_buffer_x2_yuv420p
                0x000a13b4        0x8 ./obj/local/armeabi-v7a/objs/adfreeflight/Stubs/transcoding_service_stub.o
 .ARM.exidx.text.encoder_handle
                0x000a13bc        0x8 ./obj/local/armeabi-v7a/objs/adfreeflight/Stubs/transcoding_service_stub.o
 .ARM.exidx.text.thread_encoder
                0x000a13c4        0x8 ./obj/local/armeabi-v7a/objs/adfreeflight/Stubs/transcoding_service_stub.o
 .ARM.exidx.text.encoder_stage_close
                0x000a13cc        0x8 ./obj/local/armeabi-v7a/objs/adfreeflight/Stubs/transcoding_service_stub.o
 .ARM.exidx.text.encoder_stage_transform
                0x000a13d4        0x8 ./obj/local/armeabi-v7a/objs/adfreeflight/Stubs/transcoding_service_stub.o
 .ARM.exidx.text.alloc_picture
                0x000a13dc        0x8 ./obj/local/armeabi-v7a/objs/adfreeflight/Stubs/transcoding_service_stub.o
 .ARM.exidx.text.Java_com_parrot_freeflight_transcodeservice_TranscodingService_encoderThreadStart
                0x000a13e4        0x8 ./obj/local/armeabi-v7a/objs/adfreeflight/Stubs/transcoding_service_stub.o
 .ARM.exidx.text.encoderThreadResume
                0x000a13ec        0x0 ./obj/local/armeabi-v7a/objs/adfreeflight/Stubs/transcoding_service_stub.o
                                  0x8 (size before relaxing)
 .ARM.exidx.text.encoderThreadStop
                0x000a13ec        0x0 ./obj/local/armeabi-v7a/objs/adfreeflight/Stubs/transcoding_service_stub.o
                                  0x8 (size before relaxing)
 .ARM.exidx.text.encoder_stage_open
                0x000a13ec        0x8 ./obj/local/armeabi-v7a/objs/adfreeflight/Stubs/transcoding_service_stub.o
 .ARM.exidx.text.Java_com_parrot_freeflight_ui_gl_GLBGVideoSprite_onSurfaceChangedNative
                0x000a13f4        0x8 ./obj/local/armeabi-v7a/objs/adfreeflight/Stubs/gl_bg_video_sprite_stub.o
 .ARM.exidx.text.Java_com_parrot_freeflight_ui_gl_GLBGVideoSprite_getVideoFrameNative
                0x000a13fc        0x8 ./obj/local/armeabi-v7a/objs/adfreeflight/Stubs/gl_bg_video_sprite_stub.o
 .ARM.exidx.text.Java_com_parrot_freeflight_ui_gl_GLBGVideoSprite_onUpdateVideoTextureNative
                0x000a1404        0x8 ./obj/local/armeabi-v7a/objs/adfreeflight/Stubs/gl_bg_video_sprite_stub.o
 .ARM.exidx.text.navdata_get
                0x000a140c        0x8 ./obj/local/armeabi-v7a/objs/adfreeflight/NavData/nav_data.o
 .ARM.exidx.text.navdata_reset
                0x000a1414        0x8 ./obj/local/armeabi-v7a/objs/adfreeflight/NavData/nav_data.o
 .ARM.exidx.text.navdata_process
                0x000a141c        0x8 ./obj/local/armeabi-v7a/objs/adfreeflight/NavData/nav_data.o
 .ARM.exidx.text.navdata_release
                0x000a1424        0x8 ./obj/local/armeabi-v7a/objs/adfreeflight/NavData/nav_data.o
 .ARM.exidx.text.navdata_init
                0x000a142c        0x0 ./obj/local/armeabi-v7a/objs/adfreeflight/NavData/nav_data.o
                                  0x8 (size before relaxing)
 .ARM.exidx.text.parrot_video_stage_renderer_invalidate
                0x000a142c        0x8 ./obj/local/armeabi-v7a/objs/adfreeflight/Video/video_stage_renderer.o
 .ARM.exidx.text.parrot_video_stage_init
                0x000a1434        0x0 ./obj/local/armeabi-v7a/objs/adfreeflight/Video/video_stage_renderer.o
                                  0x8 (size before relaxing)
 .ARM.exidx.text.parrot_video_stage_deinit
                0x000a1434        0x0 ./obj/local/armeabi-v7a/objs/adfreeflight/Video/video_stage_renderer.o
                                  0x8 (size before relaxing)
 .ARM.exidx.text.Java_com_parrot_freeflight_video_VideoStageRenderer_getVideoFrameNative
                0x000a1434        0x0 ./obj/local/armeabi-v7a/objs/adfreeflight/Video/video_stage_renderer.o
                                  0x8 (size before relaxing)
 .ARM.exidx.text.parrot_frame_rate_init
                0x000a1434        0x8 ./obj/local/armeabi-v7a/objs/adfreeflight/Video/frame_rate.o
 .ARM.exidx.text.parrot_frame_rate_on_draw_completed
                0x000a143c        0x8 ./obj/local/armeabi-v7a/objs/adfreeflight/Video/frame_rate.o
 .ARM.exidx.text.close_gamepad
                0x000a1444        0x8 ./obj/local/armeabi-v7a/objs/adfreeflight/Controller/virtual_gamepad.o
 .ARM.exidx.text.open_gamepad
                0x000a144c        0x0 ./obj/local/armeabi-v7a/objs/adfreeflight/Controller/virtual_gamepad.o
                                  0x8 (size before relaxing)
 .ARM.exidx.text.update_gamepad
                0x000a144c        0x0 ./obj/local/armeabi-v7a/objs/adfreeflight/Controller/virtual_gamepad.o
                                  0x8 (size before relaxing)
 .ARM.exidx.text.opengl_video_stage_get
                0x000a144c        0x8 ./obj/local/armeabi-v7a/objs/adfreeflight/Video/opengl_stage.o
 .ARM.exidx.text.opengl_video_stage_close
                0x000a1454        0x8 ./obj/local/armeabi-v7a/objs/adfreeflight/Video/opengl_stage.o
 .ARM.exidx.text.opengl_video_stage_transform
                0x000a145c        0x8 ./obj/local/armeabi-v7a/objs/adfreeflight/Video/opengl_stage.o
 .ARM.exidx.text.opengl_video_stage_open
                0x000a1464        0x8 ./obj/local/armeabi-v7a/objs/adfreeflight/Video/opengl_stage.o
 .ARM.exidx.text.opengl_shader_destroy
                0x000a146c        0x8 ./obj/local/armeabi-v7a/objs/adfreeflight/Video/opengl_shader.o
 .ARM.exidx.text.opengl_shader_validate
                0x000a1474        0x8 ./obj/local/armeabi-v7a/objs/adfreeflight/Video/opengl_shader.o
 .ARM.exidx.text.opengl_shader_link
                0x000a147c        0x8 ./obj/local/armeabi-v7a/objs/adfreeflight/Video/opengl_shader.o
 .ARM.exidx.text.opengl_shader_compile
                0x000a1484        0x8 ./obj/local/armeabi-v7a/objs/adfreeflight/Video/opengl_shader.o
 .ARM.exidx.text.opengl_texture_destroy
                0x000a148c        0x8 ./obj/local/armeabi-v7a/objs/adfreeflight/Video/opengl_texture.o
 .ARM.exidx.text.opengl_texture_scale_compute
                0x000a1494        0x8 ./obj/local/armeabi-v7a/objs/adfreeflight/Video/opengl_texture.o
 .ARM.exidx.text.opengl_texture_draw
                0x000a149c        0x8 ./obj/local/armeabi-v7a/objs/adfreeflight/Video/opengl_texture.o
 .ARM.exidx.text.opengl_texture_init
                0x000a14a4       0x10 ./obj/local/armeabi-v7a/objs/adfreeflight/Video/opengl_texture.o
                                  0x8 (size before relaxing)
 .ARM.exidx     0x000a14b4        0x8 /home/n-brulez/dev/sdk/android-ndk-r7/toolchains/arm-linux-androideabi-4.4.3/prebuilt/linux-x86/bin/../lib/gcc/arm-linux-androideabi/4.4.3/libgcc.a(bpabi.o)
                                 0x10 (size before relaxing)
 .ARM.exidx     0x000a14bc       0x88 /home/n-brulez/dev/sdk/android-ndk-r7/toolchains/arm-linux-androideabi-4.4.3/prebuilt/linux-x86/bin/../lib/gcc/arm-linux-androideabi/4.4.3/libgcc.a(unwind-arm.o)
                                 0xa0 (size before relaxing)
 .ARM.exidx     0x000a1544       0x20 /home/n-brulez/dev/sdk/android-ndk-r7/toolchains/arm-linux-androideabi-4.4.3/prebuilt/linux-x86/bin/../lib/gcc/arm-linux-androideabi/4.4.3/libgcc.a(pr-support.o)
                                 0x38 (size before relaxing)
 .ARM.exidx     0x000a1564        0x8 /home/n-brulez/dev/sdk/android-ndk-r7/toolchains/arm-linux-androideabi-4.4.3/prebuilt/linux-x86/bin/../lib/gcc/arm-linux-androideabi/4.4.3/libgcc.a(_divdi3.o)
 .ARM.exidx     0x000a156c       0x10 /home/n-brulez/dev/sdk/android-ndk-r7/toolchains/arm-linux-androideabi-4.4.3/prebuilt/linux-x86/bin/../lib/gcc/arm-linux-androideabi/4.4.3/libgcc.a(_udivdi3.o)
                                  0x8 (size before relaxing)
                0x000a157c                __exidx_end = .

.eh_frame_hdr
 *(.eh_frame_hdr)

.eh_frame
 *(.eh_frame)

.gcc_except_table
 *(.gcc_except_table .gcc_except_table.*)
                0x000a157c                . = (ALIGN (0x8000) - ((0x8000 - .) & 0x7fff))
                0x000a957c                . = (0x8000 DATA_SEGMENT_ALIGN 0x1000)

.eh_frame
 *(.eh_frame)

.gcc_except_table
 *(.gcc_except_table .gcc_except_table.*)

.tdata
 *(.tdata .tdata.* .gnu.linkonce.td.*)

.tbss
 *(.tbss .tbss.* .gnu.linkonce.tb.*)
 *(.tcommon)

.preinit_array
 *(.preinit_array)

.init_array     0x000a957c        0x8
 *(SORT(.init_array.*))
 *(.init_array)
 .init_array    0x000a957c        0x4 /home/n-brulez/dev/sdk/android-ndk-r7/platforms/android-14/arch-arm/usr/lib/crtbegin_so.o
                0x000a957c                __INIT_ARRAY__
 .init_array    0x000a9580        0x4 /home/n-brulez/dev/sdk/android-ndk-r7/platforms/android-14/arch-arm/usr/lib/crtend_so.o

.fini_array     0x000a9584        0xc
 *(.fini_array)
 .fini_array    0x000a9584        0x8 /home/n-brulez/dev/sdk/android-ndk-r7/platforms/android-14/arch-arm/usr/lib/crtbegin_so.o
                0x000a9584                __FINI_ARRAY__
 .fini_array    0x000a958c        0x4 /home/n-brulez/dev/sdk/android-ndk-r7/platforms/android-14/arch-arm/usr/lib/crtend_so.o
 *(SORT(.fini_array.*))

.ctors
 *crtbegin.o(.ctors)
 *crtbegin?.o(.ctors)
 *(EXCLUDE_FILE(*crtend?.o *crtend.o) .ctors)
 *(SORT(.ctors.*))
 *(.ctors)

.dtors
 *crtbegin.o(.dtors)
 *crtbegin?.o(.dtors)
 *(EXCLUDE_FILE(*crtend?.o *crtend.o) .dtors)
 *(SORT(.dtors.*))
 *(.dtors)

.jcr
 *(.jcr)

.data.rel.ro    0x000a9590      0x2d0
 *(.data.rel.ro.local* .gnu.linkonce.d.rel.ro.local.*)
 .data.rel.ro.local
                0x000a9590        0x4 ./obj/local/armeabi-v7a/objs/adfreeflight/app.o
 .data.rel.ro.local
                0x000a9594        0x4 ./obj/local/armeabi-v7a/objs/adfreeflight/ControlData.o
 .data.rel.ro.local
                0x000a9598        0x4 ./obj/local/armeabi-v7a/objs/adfreeflight/Callbacks/drone_proxy_callbacks.o
 .data.rel.ro.local
                0x000a959c        0x4 ./obj/local/armeabi-v7a/objs/adfreeflight/Callbacks/java_callbacks.o
 .data.rel.ro.local
                0x000a95a0        0x4 ./obj/local/armeabi-v7a/objs/adfreeflight/Stubs/drone_stub.o
 .data.rel.ro.local
                0x000a95a4        0x4 ./obj/local/armeabi-v7a/objs/adfreeflight/Stubs/drone_config_stub.o
 .data.rel.ro.local
                0x000a95a8        0x4 ./obj/local/armeabi-v7a/objs/adfreeflight/Stubs/ftp_client_stub.o
 .data.rel.ro.local
                0x000a95ac        0x4 ./obj/local/armeabi-v7a/objs/adfreeflight/Stubs/plf_file_stub.o
 .data.rel.ro.local
                0x000a95b0        0x4 ./obj/local/armeabi-v7a/objs/adfreeflight/Stubs/transcoding_service_stub.o
 .data.rel.ro.local
                0x000a95b4        0x4 ./obj/local/armeabi-v7a/objs/adfreeflight/NavData/nav_data.o
 .data.rel.ro.local
                0x000a95b8        0x4 ./obj/local/armeabi-v7a/objs/adfreeflight/Controller/virtual_gamepad.o
 .data.rel.ro.local
                0x000a95bc        0x4 ./obj/local/armeabi-v7a/objs/adfreeflight/Video/opengl_texture.o
 .data.rel.ro.local
                0x000a95c0       0x50 ./obj/local/armeabi-v7a/libsdk.a(vp_com_error.o)
 *(.data.rel.ro* .gnu.linkonce.d.rel.ro.*)
 .data.rel.ro   0x000a9610       0x10 ./obj/local/armeabi-v7a/objs/adfreeflight/video_stage_io_file.o
                0x000a9610                video_stage_io_file_funcs
 .data.rel.ro   0x000a9620       0x10 ./obj/local/armeabi-v7a/objs/adfreeflight/Stubs/transcoding_service_stub.o
                0x000a9620                encoder_stage_funcs
 .data.rel.ro   0x000a9630       0x10 ./obj/local/armeabi-v7a/objs/adfreeflight/Video/opengl_stage.o
                0x000a9630                opengl_video_stage_funcs
 .data.rel.ro   0x000a9640       0x10 ./obj/local/armeabi-v7a/libpc_ardrone.a(video_stage_encoded_recorder.o)
                0x000a9640                video_encoded_recorder_funcs
 .data.rel.ro   0x000a9650       0x10 ./obj/local/armeabi-v7a/libpc_ardrone.a(video_stage_latency_estimation.o)
                0x000a9650                vp_stages_latency_estimation_funcs
 .data.rel.ro   0x000a9660       0x1c ./obj/local/armeabi-v7a/libpc_ardrone.a(ardrone_at_mutex.o)
 .data.rel.ro   0x000a967c       0x10 ./obj/local/armeabi-v7a/libpc_ardrone.a(academy_stage_recorder.o)
                0x000a967c                ardrone_academy_stage_recorder_funcs
 .data.rel.ro   0x000a968c       0x20 ./obj/local/armeabi-v7a/libpc_ardrone.a(video_com_stage.o)
                0x000a968c                video_com_funcs
                0x000a969c                video_com_multisocket_funcs
 .data.rel.ro   0x000a96ac       0x10 ./obj/local/armeabi-v7a/libpc_ardrone.a(video_stage_tcp.o)
                0x000a96ac                video_stage_tcp_funcs
 .data.rel.ro   0x000a96bc       0x10 ./obj/local/armeabi-v7a/libpc_ardrone.a(video_stage_merge_slices.o)
                0x000a96bc                video_stage_merge_slices_funcs
 .data.rel.ro   0x000a96cc       0x10 ./obj/local/armeabi-v7a/libpc_ardrone.a(video_stage_decoder.o)
                0x000a96cc                video_decoding_funcs
 .data.rel.ro   0x000a96dc       0x10 ./obj/local/armeabi-v7a/libpc_ardrone.a(video_stage_ffmpeg_decoder.o)
                0x000a96dc                ffmpeg_decoding_funcs
 .data.rel.ro   0x000a96ec       0x10 ./obj/local/armeabi-v7a/libpc_ardrone.a(video_stage_ittiam_decoder.o)
                0x000a96ec                ittiam_decoding_funcs
 .data.rel.ro   0x000a96fc       0x10 ./obj/local/armeabi-v7a/libvlib.a(vlib_stage_decode.o)
                0x000a96fc                vlib_decoding_funcs
 .data.rel.ro   0x000a970c       0x80 ./obj/local/armeabi-v7a/libvlib.a(p263_codec.o)
                0x000a970c                p263_codec
 .data.rel.ro   0x000a978c       0xb0 ./obj/local/armeabi-v7a/libvlib.a(p264_codec.o)
                0x000a978c                p264_codec
 .data.rel.ro   0x000a983c       0x24 ./obj/local/armeabi-v7a/libvlib.a(uvlc_codec.o)
                0x000a983c                uvlc_codec

.dynamic        0x000a9860      0x148
 *(.dynamic)
 .dynamic       0x000a9860      0x148 /home/n-brulez/dev/sdk/android-ndk-r7/platforms/android-14/arch-arm/usr/lib/crtbegin_so.o
                0x000a9860                _DYNAMIC
                0x000a99a8                . = (. DATA_SEGMENT_RELRO_END 0x0)

.got            0x000a99a8      0x744
 *(.got.plt)
 .got.plt       0x000a99a8      0x2c8 /home/n-brulez/dev/sdk/android-ndk-r7/platforms/android-14/arch-arm/usr/lib/crtbegin_so.o
                0x000a99a8                _GLOBAL_OFFSET_TABLE_
 *(.igot.plt)
 *(.got)
 .got           0x000a9c70      0x47c /home/n-brulez/dev/sdk/android-ndk-r7/platforms/android-14/arch-arm/usr/lib/crtbegin_so.o
 *(.igot)

.data           0x000aa0f0     0x24dc
                0x000aa0f0                PROVIDE (__data_start, .)
 *(.data .data.* .gnu.linkonce.d.*)
 .data          0x000aa0f0        0x0 /home/n-brulez/dev/sdk/android-ndk-r7/platforms/android-14/arch-arm/usr/lib/crtbegin_so.o
 .data          0x000aa0f0        0x4 ./obj/local/armeabi-v7a/objs/adfreeflight/app.o
 .data.rel      0x000aa0f4       0xc0 ./obj/local/armeabi-v7a/objs/adfreeflight/app.o
                0x000aa0f4                threadTable
 .data          0x000aa1b4        0x0 ./obj/local/armeabi-v7a/objs/adfreeflight/video_stage_io_file.o
 .data          0x000aa1b4        0x0 ./obj/local/armeabi-v7a/objs/adfreeflight/hardware_capabilites.o
 .data          0x000aa1b4        0x0 ./obj/local/armeabi-v7a/objs/adfreeflight/Controller/ardrone_controller.o
 .data          0x000aa1b4        0x0 ./obj/local/armeabi-v7a/objs/adfreeflight/ControlData.o
 .data          0x000aa1b4        0x0 ./obj/local/armeabi-v7a/objs/adfreeflight/Callbacks/drone_proxy_callbacks.o
 .data          0x000aa1b4        0x0 ./obj/local/armeabi-v7a/objs/adfreeflight/Callbacks/java_callbacks.o
 .data          0x000aa1b4        0x0 ./obj/local/armeabi-v7a/objs/adfreeflight/Plf/plf.o
 .data          0x000aa1b4        0x0 ./obj/local/armeabi-v7a/objs/adfreeflight/Stubs/drone_stub.o
 .data          0x000aa1b4        0x0 ./obj/local/armeabi-v7a/objs/adfreeflight/Stubs/drone_config_stub.o
 .data          0x000aa1b4        0x0 ./obj/local/armeabi-v7a/objs/adfreeflight/Stubs/ftp_client_stub.o
 .data          0x000aa1b4        0x0 ./obj/local/armeabi-v7a/objs/adfreeflight/Stubs/plf_file_stub.o
 .data          0x000aa1b4        0x0 ./obj/local/armeabi-v7a/objs/adfreeflight/Stubs/transcoding_service_stub.o
 .data          0x000aa1b4        0x0 ./obj/local/armeabi-v7a/objs/adfreeflight/Stubs/gl_bg_video_sprite_stub.o
 .data          0x000aa1b4        0x0 ./obj/local/armeabi-v7a/objs/adfreeflight/NavData/nav_data.o
 .data.rel      0x000aa1b4       0x60 ./obj/local/armeabi-v7a/objs/adfreeflight/NavData/nav_data.o
                0x000aa1b4                ardrone_navdata_handler_table
 .data          0x000aa214        0x0 ./obj/local/armeabi-v7a/objs/adfreeflight/Video/video_stage_renderer.o
 .data          0x000aa214        0x0 ./obj/local/armeabi-v7a/objs/adfreeflight/Video/frame_rate.o
 .data          0x000aa214        0x0 ./obj/local/armeabi-v7a/objs/adfreeflight/Controller/virtual_gamepad.o
 .data.rel.local
                0x000aa214      0x10c ./obj/local/armeabi-v7a/objs/adfreeflight/Controller/virtual_gamepad.o
                0x000aa214                virtual_gamepad
 .data          0x000aa320        0x4 ./obj/local/armeabi-v7a/objs/adfreeflight/Video/opengl_stage.o
 .data          0x000aa324        0x0 ./obj/local/armeabi-v7a/objs/adfreeflight/Video/opengl_shader.o
 .data          0x000aa324        0x0 ./obj/local/armeabi-v7a/objs/adfreeflight/Video/opengl_texture.o
 .data          0x000aa324        0x0 ./obj/local/armeabi-v7a/libpc_ardrone.a(ardrone_version.o)
 .data          0x000aa324        0x0 ./obj/local/armeabi-v7a/libpc_ardrone.a(ardrone_ftp.o)
 .data          0x000aa324        0x0 ./obj/local/armeabi-v7a/libpc_ardrone.a(ardrone_video_atoms.o)
 *fill*         0x000aa324        0x4 00
 .data          0x000aa328       0x18 ./obj/local/armeabi-v7a/libpc_ardrone.a(ardrone_video_encapsuler.o)
 .data          0x000aa340        0x0 ./obj/local/armeabi-v7a/libpc_ardrone.a(video_stage_encoded_recorder.o)
 .data          0x000aa340        0x0 ./obj/local/armeabi-v7a/libpc_ardrone.a(video_stage_latency_estimation.o)
 .data          0x000aa340        0x4 ./obj/local/armeabi-v7a/libpc_ardrone.a(video_recorder_pipeline.o)
 .data          0x000aa344        0x4 ./obj/local/armeabi-v7a/libpc_ardrone.a(video_stage.o)
 .data          0x000aa348        0x0 ./obj/local/armeabi-v7a/libpc_ardrone.a(AR_Ftw.o)
 .data          0x000aa348        0x0 ./obj/local/armeabi-v7a/libpc_ardrone.a(ardrone_at_mutex.o)
 .data          0x000aa348      0x100 ./obj/local/armeabi-v7a/libpc_ardrone.a(academy.o)
                0x000aa348                flight_dir
 .data          0x000aa448        0x0 ./obj/local/armeabi-v7a/libpc_ardrone.a(academy_upload.o)
 .data          0x000aa448        0x0 ./obj/local/armeabi-v7a/libpc_ardrone.a(academy_stage_recorder.o)
 .data          0x000aa448        0x0 ./obj/local/armeabi-v7a/libpc_ardrone.a(ardrone_navdata_file.o)
 .data          0x000aa448        0x0 ./obj/local/armeabi-v7a/libpc_ardrone.a(ardrone_general_navdata.o)
 .data          0x000aa448        0x4 ./obj/local/armeabi-v7a/libpc_ardrone.a(ardrone_academy_navdata.o)
                0x000aa448                deviceWifiRecordCodec
 .data          0x000aa44c        0x0 ./obj/local/armeabi-v7a/libpc_ardrone.a(ardrone_input.o)
 .data          0x000aa44c        0x0 ./obj/local/armeabi-v7a/libpc_ardrone.a(ardrone_tool_configuration.o)
 .data          0x000aa44c      0xd48 ./obj/local/armeabi-v7a/libpc_ardrone.a(ardrone_tool.o)
                0x000aa450                MiscVar
                0x000aa460                wifi_ardrone_ip
                0x000aa470                app_id
                0x000aa47c                app_name
                0x000aa87c                usr_id
                0x000aa888                usr_name
                0x000aac88                ses_id
                0x000aac94                ses_name
                0x000ab094                root_dir
 .data          0x000ab194      0x15c ./obj/local/armeabi-v7a/libpc_ardrone.a(config_wifi.o)
 .data          0x000ab2f0        0x4 ./obj/local/armeabi-v7a/libpc_ardrone.a(video_com_stage.o)
 .data          0x000ab2f4        0x4 ./obj/local/armeabi-v7a/libpc_ardrone.a(video_navdata_handler.o)
 .data          0x000ab2f8        0x4 ./obj/local/armeabi-v7a/libpc_ardrone.a(ardrone_control.o)
 .data          0x000ab2fc        0x0 ./obj/local/armeabi-v7a/libpc_ardrone.a(ardrone_navdata_control.o)
 .data          0x000ab2fc        0x8 ./obj/local/armeabi-v7a/libpc_ardrone.a(ardrone_navdata_client.o)
 .data          0x000ab304        0x0 ./obj/local/armeabi-v7a/libpc_ardrone.a(iniparser.o)
 .data          0x000ab304        0x0 ./obj/local/armeabi-v7a/libpc_ardrone.a(dictionary.o)
 .data          0x000ab304        0x0 ./obj/local/armeabi-v7a/libpc_ardrone.a(navdata.o)
 .data          0x000ab304        0x0 ./obj/local/armeabi-v7a/libpc_ardrone.a(config_keys.o)
 .data.rel.local
                0x000ab304       0x3c ./obj/local/armeabi-v7a/libpc_ardrone.a(config_keys.o)
                0x000ab304                custom_configuration_id_keys
                0x000ab318                custom_configuration_headers
                0x000ab32c                configuration_switching_commands
 .data          0x000ab340        0x0 ./obj/local/armeabi-v7a/libpc_ardrone.a(ardrone_time.o)
 .data          0x000ab340        0x0 ./obj/local/armeabi-v7a/libpc_ardrone.a(ardrone_date.o)
 .data          0x000ab340        0x4 ./obj/local/armeabi-v7a/libpc_ardrone.a(ardrone_gen_ids.o)
 .data          0x000ab344        0x0 ./obj/local/armeabi-v7a/libpc_ardrone.a(video_stage_tcp.o)
 .data          0x000ab344        0x0 ./obj/local/armeabi-v7a/libpc_ardrone.a(video_stage_merge_slices.o)
 .data          0x000ab344        0x8 ./obj/local/armeabi-v7a/libpc_ardrone.a(video_stage_decoder.o)
 .data          0x000ab34c        0x0 ./obj/local/armeabi-v7a/libpc_ardrone.a(academy_download.o)
 .data          0x000ab34c        0x0 ./obj/local/armeabi-v7a/libpc_ardrone.a(ardrone_control_configuration.o)
 .data          0x000ab34c        0x0 ./obj/local/armeabi-v7a/libpc_ardrone.a(ardrone_control_ack.o)
 .data          0x000ab34c        0x0 ./obj/local/armeabi-v7a/libpc_ardrone.a(ardrone_crc_32.o)
 .data          0x000ab34c        0x0 ./obj/local/armeabi-v7a/libpc_ardrone.a(video_encapsulation.o)
 .data          0x000ab34c        0x4 ./obj/local/armeabi-v7a/libpc_ardrone.a(video_stage_ffmpeg_decoder.o)
 .data          0x000ab350        0x4 ./obj/local/armeabi-v7a/libpc_ardrone.a(video_stage_ittiam_decoder.o)
 .data          0x000ab354        0x0 ./obj/local/armeabi-v7a/libvlib.a(vlib_stage_decode.o)
 .data          0x000ab354        0x0 ./obj/local/armeabi-v7a/libvlib.a(video_codec.o)
 .data          0x000ab354        0x0 ./obj/local/armeabi-v7a/libvlib.a(video_controller.o)
 .data          0x000ab354        0x0 ./obj/local/armeabi-v7a/libvlib.a(video_packetizer.o)
 .data          0x000ab354        0x0 ./obj/local/armeabi-v7a/libvlib.a(video_quantizer.o)
 .data          0x000ab354        0x4 ./obj/local/armeabi-v7a/libvlib.a(p263_codec.o)
 .data          0x000ab358      0xd94 ./obj/local/armeabi-v7a/libvlib.a(p263_huffman.o)
                0x000ab358                vlc_mcbpc_ipictures
                0x000ab3a0                mcbpc_ipictures
                0x000ab3e8                vlc_cbpy_standard
                0x000ab468                cbpy_standard
                0x000ab4e0                vlc_tcoeff
                0x000ab818                tcoeff
                0x000abcec                mvd_vlc
                0x000abeec                mvd
 .data          0x000ac0ec       0x1c ./obj/local/armeabi-v7a/libvlib.a(p263_mb_layer.o)
                0x000ac0ec                standard_mb_types
 .data          0x000ac108        0x0 ./obj/local/armeabi-v7a/libvlib.a(p263_gob_layer.o)
 .data          0x000ac108        0x0 ./obj/local/armeabi-v7a/libvlib.a(p263_picture_layer.o)
 .data          0x000ac108        0x0 ./obj/local/armeabi-v7a/libvlib.a(p264_codec.o)
 .data          0x000ac108        0x0 ./obj/local/armeabi-v7a/libvlib.a(p264_gob_layer.o)
 .data          0x000ac108        0x0 ./obj/local/armeabi-v7a/libvlib.a(p264_mb_layer.o)
 .data          0x000ac108        0x0 ./obj/local/armeabi-v7a/libvlib.a(p264_picture_layer.o)
 .data          0x000ac108       0x80 ./obj/local/armeabi-v7a/libvlib.a(video_p264.o)
 .data          0x000ac188        0x4 ./obj/local/armeabi-v7a/libvlib.a(uvlc_codec.o)
 .data          0x000ac18c        0x0 ./obj/local/armeabi-v7a/libvlib.a(uvlc_gob_layer.o)
 .data          0x000ac18c        0x0 ./obj/local/armeabi-v7a/libvlib.a(uvlc_mb_layer.o)
 .data          0x000ac18c        0x0 ./obj/local/armeabi-v7a/libvlib.a(uvlc_picture_layer.o)
 .data          0x000ac18c        0x0 ./obj/local/armeabi-v7a/libvlib.a(video_utils.o)
 .data          0x000ac18c        0x0 ./obj/local/armeabi-v7a/libvlib.a(video_mem32.o)
 .data          0x000ac18c        0x0 ./obj/local/armeabi-v7a/libvlib.a(video_dct.o)
 .data          0x000ac18c        0x0 ./obj/local/armeabi-v7a/libvlib.a(video_huffman.o)
 .data          0x000ac18c      0x100 ./obj/local/armeabi-v7a/libvlib.a(video_macroblock.o)
                0x000ac18c                video_zztable_t81
 .data          0x000ac28c        0x0 ./obj/local/armeabi-v7a/libvlib.a(video_picture.o)
 .data          0x000ac28c       0x40 ./obj/local/armeabi-v7a/libvlib.a(p264_zigzag.o)
                0x000ac28c                video_zztable_t41
 .data          0x000ac2cc        0x0 ./obj/local/armeabi-v7a/libvlib.a(p264_transform.o)
 .data          0x000ac2cc       0xc0 ./obj/local/armeabi-v7a/libvlib.a(p264_Qp.o)
 .data          0x000ac38c        0x0 ./obj/local/armeabi-v7a/libvlib.a(p264_intra_pred.o)
 .data          0x000ac38c        0x0 ./obj/local/armeabi-v7a/libvlib.a(p264_inter_mc.o)
 .data          0x000ac38c        0x0 ./obj/local/armeabi-v7a/libvlib.a(p264_merge.o)
 .data          0x000ac38c        0x0 ./obj/local/armeabi-v7a/libvlib.a(p264.o)
 .data          0x000ac38c        0x0 ./obj/local/armeabi-v7a/libvlib.a(uvlc.o)
 .data          0x000ac38c        0x0 ./obj/local/armeabi-v7a/libsdk.a(vp_os_malloc.o)
 .data          0x000ac38c        0x0 ./obj/local/armeabi-v7a/libsdk.a(vp_api.o)
 .data          0x000ac38c        0x0 ./obj/local/armeabi-v7a/libsdk.a(vp_api_supervisor.o)
 .data          0x000ac38c        0x0 ./obj/local/armeabi-v7a/libsdk.a(vp_api_thread_helper.o)
 .data          0x000ac38c        0x4 ./obj/local/armeabi-v7a/libsdk.a(ATcodec_api.o)
 .data          0x000ac390        0x0 ./obj/local/armeabi-v7a/libsdk.a(vp_com.o)
 .data          0x000ac390        0x0 ./obj/local/armeabi-v7a/libsdk.a(vp_com_error.o)
 .data          0x000ac390        0x0 ./obj/local/armeabi-v7a/libsdk.a(vp_os_signal.o)
 .data          0x000ac390        0x0 ./obj/local/armeabi-v7a/libsdk.a(vp_os_delay.o)
 .data          0x000ac390        0x4 ./obj/local/armeabi-v7a/libsdk.a(vp_os_thread.o)
 .data          0x000ac394        0x0 ./obj/local/armeabi-v7a/libsdk.a(vp_com_wifi.o)
 .data          0x000ac394        0x0 ./obj/local/armeabi-v7a/libsdk.a(vp_com_socket.o)
 .data          0x000ac394        0x0 ./obj/local/armeabi-v7a/libsdk.a(vp_com_socket_utils.o)
 .data          0x000ac394        0x0 ./obj/local/armeabi-v7a/libsdk.a(vp_com_config_itf.o)
 .data          0x000ac394        0x0 ./obj/local/armeabi-v7a/libsdk.a(vp_os_error_handling.o)
 .data          0x000ac394        0x0 ./obj/local/armeabi-v7a/libsdk.a(ATcodec_Memory.o)
 .data          0x000ac394        0x0 ./obj/local/armeabi-v7a/libsdk.a(ATcodec_Buffer.o)
 .data          0x000ac394        0x0 ./obj/local/armeabi-v7a/libsdk.a(ATcodec.o)
 .data.rel.local
                0x000ac394       0x18 ./obj/local/armeabi-v7a/libsdk.a(ATcodec.o)
 .data          0x000ac3ac        0x0 ./obj/local/armeabi-v7a/libsdk.a(ATcodec_Tree.o)
 .data          0x000ac3ac        0x8 ./obj/local/armeabi-v7a/h264_dec_lib.a(bufapi_ittiam_ialg.rel.rvds.o)
                0x000ac3ac                IBUFAPI_PARAMS
 .data          0x000ac3b4        0x4 ./obj/local/armeabi-v7a/h264_dec_lib.a(decodeSlice.rel.rvds.o)
                0x000ac3b4                gu4_disp_cnt
 .data          0x000ac3b8        0xc ./obj/local/armeabi-v7a/mpeg4_asp_dec_lib.a(globals.o)
                0x000ac3b8                g_imp4d_cxa8_ScanPattern
 .data          0x000ac3c4       0x80 ./obj/local/armeabi-v7a/mpeg4_asp_dec_lib.a(idct.o)
                0x000ac3c4                g_imp4d_cxa8_idct_q15
 .data          0x000ac444       0x80 ./obj/local/armeabi-v7a/mpeg4_asp_dec_lib.a(idct.o)
                0x000ac444                g_imp4d_cxa8_idct_q12
 .data          0x000ac4c4        0x4 ./obj/local/armeabi-v7a/mpeg4_asp_dec_lib.a(motioncompensate.o)
                0x000ac4c4                grows
 .data          0x000ac4c8        0x4 ./obj/local/armeabi-v7a/mpeg4_asp_dec_lib.a(motioncompensate.o)
                0x000ac4c8                nogrows
 .data          0x000ac4cc       0x80 ./obj/local/armeabi-v7a/mpeg4_asp_dec_lib.a(vldecoder_tables.o)
                0x000ac4cc                g_imp4d_cxa8_Intra_PtrToMatrix
 .data          0x000ac54c       0x80 ./obj/local/armeabi-v7a/mpeg4_asp_dec_lib.a(vldecoder_tables.o)
                0x000ac54c                Inter_PtrToMatrix
 .data          0x000ac5cc        0x0 /home/n-brulez/dev/sdk/android-ndk-r7/toolchains/arm-linux-androideabi-4.4.3/prebuilt/linux-x86/bin/../lib/gcc/arm-linux-androideabi/4.4.3/libgcc.a(_udivsi3.o)
 .data          0x000ac5cc        0x0 /home/n-brulez/dev/sdk/android-ndk-r7/toolchains/arm-linux-androideabi-4.4.3/prebuilt/linux-x86/bin/../lib/gcc/arm-linux-androideabi/4.4.3/libgcc.a(_divsi3.o)
 .data          0x000ac5cc        0x0 /home/n-brulez/dev/sdk/android-ndk-r7/toolchains/arm-linux-androideabi-4.4.3/prebuilt/linux-x86/bin/../lib/gcc/arm-linux-androideabi/4.4.3/libgcc.a(_arm_addsubdf3.o)
 .data          0x000ac5cc        0x0 /home/n-brulez/dev/sdk/android-ndk-r7/toolchains/arm-linux-androideabi-4.4.3/prebuilt/linux-x86/bin/../lib/gcc/arm-linux-androideabi/4.4.3/libgcc.a(_arm_muldivdf3.o)
 .data          0x000ac5cc        0x0 /home/n-brulez/dev/sdk/android-ndk-r7/toolchains/arm-linux-androideabi-4.4.3/prebuilt/linux-x86/bin/../lib/gcc/arm-linux-androideabi/4.4.3/libgcc.a(_arm_cmpdf2.o)
 .data          0x000ac5cc        0x0 /home/n-brulez/dev/sdk/android-ndk-r7/toolchains/arm-linux-androideabi-4.4.3/prebuilt/linux-x86/bin/../lib/gcc/arm-linux-androideabi/4.4.3/libgcc.a(_arm_fixdfsi.o)
 .data          0x000ac5cc        0x0 /home/n-brulez/dev/sdk/android-ndk-r7/toolchains/arm-linux-androideabi-4.4.3/prebuilt/linux-x86/bin/../lib/gcc/arm-linux-androideabi/4.4.3/libgcc.a(_arm_truncdfsf2.o)
 .data          0x000ac5cc        0x0 /home/n-brulez/dev/sdk/android-ndk-r7/toolchains/arm-linux-androideabi-4.4.3/prebuilt/linux-x86/bin/../lib/gcc/arm-linux-androideabi/4.4.3/libgcc.a(_arm_addsubsf3.o)
 .data          0x000ac5cc        0x0 /home/n-brulez/dev/sdk/android-ndk-r7/toolchains/arm-linux-androideabi-4.4.3/prebuilt/linux-x86/bin/../lib/gcc/arm-linux-androideabi/4.4.3/libgcc.a(_arm_muldivsf3.o)
 .data          0x000ac5cc        0x0 /home/n-brulez/dev/sdk/android-ndk-r7/toolchains/arm-linux-androideabi-4.4.3/prebuilt/linux-x86/bin/../lib/gcc/arm-linux-androideabi/4.4.3/libgcc.a(_arm_cmpsf2.o)
 .data          0x000ac5cc        0x0 /home/n-brulez/dev/sdk/android-ndk-r7/toolchains/arm-linux-androideabi-4.4.3/prebuilt/linux-x86/bin/../lib/gcc/arm-linux-androideabi/4.4.3/libgcc.a(_arm_fixunssfsi.o)
 .data          0x000ac5cc        0x0 /home/n-brulez/dev/sdk/android-ndk-r7/toolchains/arm-linux-androideabi-4.4.3/prebuilt/linux-x86/bin/../lib/gcc/arm-linux-androideabi/4.4.3/libgcc.a(_aeabi_ldivmod.o)
 .data          0x000ac5cc        0x0 /home/n-brulez/dev/sdk/android-ndk-r7/toolchains/arm-linux-androideabi-4.4.3/prebuilt/linux-x86/bin/../lib/gcc/arm-linux-androideabi/4.4.3/libgcc.a(_aeabi_uldivmod.o)
 .data          0x000ac5cc        0x0 /home/n-brulez/dev/sdk/android-ndk-r7/toolchains/arm-linux-androideabi-4.4.3/prebuilt/linux-x86/bin/../lib/gcc/arm-linux-androideabi/4.4.3/libgcc.a(_dvmd_lnx.o)
 .data          0x000ac5cc        0x0 /home/n-brulez/dev/sdk/android-ndk-r7/toolchains/arm-linux-androideabi-4.4.3/prebuilt/linux-x86/bin/../lib/gcc/arm-linux-androideabi/4.4.3/libgcc.a(bpabi.o)
 .data          0x000ac5cc        0x0 /home/n-brulez/dev/sdk/android-ndk-r7/toolchains/arm-linux-androideabi-4.4.3/prebuilt/linux-x86/bin/../lib/gcc/arm-linux-androideabi/4.4.3/libgcc.a(unwind-arm.o)
 .data          0x000ac5cc        0x0 /home/n-brulez/dev/sdk/android-ndk-r7/toolchains/arm-linux-androideabi-4.4.3/prebuilt/linux-x86/bin/../lib/gcc/arm-linux-androideabi/4.4.3/libgcc.a(libunwind.o)
 .data          0x000ac5cc        0x0 /home/n-brulez/dev/sdk/android-ndk-r7/toolchains/arm-linux-androideabi-4.4.3/prebuilt/linux-x86/bin/../lib/gcc/arm-linux-androideabi/4.4.3/libgcc.a(pr-support.o)
 .data          0x000ac5cc        0x0 /home/n-brulez/dev/sdk/android-ndk-r7/toolchains/arm-linux-androideabi-4.4.3/prebuilt/linux-x86/bin/../lib/gcc/arm-linux-androideabi/4.4.3/libgcc.a(_divdi3.o)
 .data          0x000ac5cc        0x0 /home/n-brulez/dev/sdk/android-ndk-r7/toolchains/arm-linux-androideabi-4.4.3/prebuilt/linux-x86/bin/../lib/gcc/arm-linux-androideabi/4.4.3/libgcc.a(_udivdi3.o)
 .data          0x000ac5cc        0x0 /home/n-brulez/dev/sdk/android-ndk-r7/platforms/android-14/arch-arm/usr/lib/crtend_so.o

.data1
 *(.data1)
                0x000ac5cc                _edata = .
                0x000ac5cc                PROVIDE (edata, .)
                0x000ac5cc                __bss_start = .
                0x000ac5cc                __bss_start__ = .

.bss            0x000ac5d0    0x1e144
 *(.dynbss)
 .dynbss        0x00000000        0x0 /home/n-brulez/dev/sdk/android-ndk-r7/platforms/android-14/arch-arm/usr/lib/crtbegin_so.o
 *(.bss .bss.* .gnu.linkonce.b.*)
 .bss           0x000ac5d0       0x10 /home/n-brulez/dev/sdk/android-ndk-r7/platforms/android-14/arch-arm/usr/lib/crtbegin_so.o
                0x000ac5d0                __dso_handle
 .bss           0x000ac5e0      0x104 ./obj/local/armeabi-v7a/objs/adfreeflight/app.o
                0x000ac5e0                ardrone_info
                0x000ac6e0                g_vm
 .bss           0x000ac6e4        0x0 ./obj/local/armeabi-v7a/objs/adfreeflight/video_stage_io_file.o
 .bss           0x000ac6e4      0x110 ./obj/local/armeabi-v7a/objs/adfreeflight/hardware_capabilites.o
 .bss           0x000ac7f4        0x4 ./obj/local/armeabi-v7a/objs/adfreeflight/Controller/ardrone_controller.o
 .bss           0x000ac7f8        0x0 ./obj/local/armeabi-v7a/objs/adfreeflight/ControlData.o
 .bss           0x000ac7f8        0x0 ./obj/local/armeabi-v7a/objs/adfreeflight/Callbacks/drone_proxy_callbacks.o
 .bss           0x000ac7f8        0x0 ./obj/local/armeabi-v7a/objs/adfreeflight/Callbacks/java_callbacks.o
 .bss           0x000ac7f8        0x0 ./obj/local/armeabi-v7a/objs/adfreeflight/Plf/plf.o
 .bss           0x000ac7f8       0x30 ./obj/local/armeabi-v7a/objs/adfreeflight/Stubs/drone_stub.o
 .bss           0x000ac828        0x0 ./obj/local/armeabi-v7a/objs/adfreeflight/Stubs/drone_config_stub.o
 .bss           0x000ac828        0x8 ./obj/local/armeabi-v7a/objs/adfreeflight/Stubs/ftp_client_stub.o
 .bss           0x000ac830        0x0 ./obj/local/armeabi-v7a/objs/adfreeflight/Stubs/plf_file_stub.o
 .bss           0x000ac830       0x28 ./obj/local/armeabi-v7a/objs/adfreeflight/Stubs/transcoding_service_stub.o
                0x000ac84c                video_outbuf
                0x000ac850                frame_count
                0x000ac854                video_outbuf_size
 .bss           0x000ac858       0x14 ./obj/local/armeabi-v7a/objs/adfreeflight/Stubs/gl_bg_video_sprite_stub.o
 .bss           0x000ac86c        0x4 ./obj/local/armeabi-v7a/objs/adfreeflight/NavData/nav_data.o
 .bss           0x000ac870        0xc ./obj/local/armeabi-v7a/objs/adfreeflight/Video/video_stage_renderer.o
                0x000ac874                video_width
                0x000ac878                video_height
 .bss           0x000ac87c        0xc ./obj/local/armeabi-v7a/objs/adfreeflight/Video/frame_rate.o
 .bss           0x000ac888        0x0 ./obj/local/armeabi-v7a/objs/adfreeflight/Controller/virtual_gamepad.o
 .bss           0x000ac888       0x14 ./obj/local/armeabi-v7a/objs/adfreeflight/Video/opengl_stage.o
                0x000ac898                DEBUG_fps
 .bss           0x000ac89c        0x0 ./obj/local/armeabi-v7a/objs/adfreeflight/Video/opengl_shader.o
 .bss           0x000ac89c        0x0 ./obj/local/armeabi-v7a/objs/adfreeflight/Video/opengl_texture.o
 .bss           0x000ac89c        0x0 ./obj/local/armeabi-v7a/libpc_ardrone.a(ardrone_version.o)
 .bss           0x000ac89c        0x8 ./obj/local/armeabi-v7a/libpc_ardrone.a(ardrone_ftp.o)
                0x000ac89c                FTPlastErrorMessage
                0x000ac8a0                FTPlastErrorMessageSize
 .bss           0x000ac8a4        0x0 ./obj/local/armeabi-v7a/libpc_ardrone.a(ardrone_video_atoms.o)
 .bss           0x000ac8a4        0x8 ./obj/local/armeabi-v7a/libpc_ardrone.a(ardrone_video_encapsuler.o)
 .bss           0x000ac8ac        0x0 ./obj/local/armeabi-v7a/libpc_ardrone.a(video_stage_encoded_recorder.o)
 .bss           0x000ac8ac       0x48 ./obj/local/armeabi-v7a/libpc_ardrone.a(video_stage_latency_estimation.o)
                0x000ac8f0                DEBUG_latency
 .bss           0x000ac8f4       0x10 ./obj/local/armeabi-v7a/libpc_ardrone.a(video_recorder_pipeline.o)
 .bss           0x000ac904      0x144 ./obj/local/armeabi-v7a/libpc_ardrone.a(video_stage.o)
 .bss           0x000aca48        0x0 ./obj/local/armeabi-v7a/libpc_ardrone.a(AR_Ftw.o)
 .bss           0x000aca48       0x8c ./obj/local/armeabi-v7a/libpc_ardrone.a(ardrone_at_mutex.o)
 .bss           0x000acad4       0xbc ./obj/local/armeabi-v7a/libpc_ardrone.a(academy.o)
 .bss           0x000acb90      0x124 ./obj/local/armeabi-v7a/libpc_ardrone.a(academy_upload.o)
 .bss           0x000accb4        0x0 ./obj/local/armeabi-v7a/libpc_ardrone.a(academy_stage_recorder.o)
 .bss           0x000accb4       0x30 ./obj/local/armeabi-v7a/libpc_ardrone.a(ardrone_navdata_file.o)
                0x000accbc                num_picture_decoded
                0x000accc0                nd_iphone_gaz
                0x000accc4                nd_iphone_yaw
                0x000accc8                nd_iphone_flag
                0x000acccc                nd_iphone_phi
                0x000accd0                nd_iphone_theta
                0x000accd4                nd_iphone_magneto_psi_accuracy
                0x000accd8                nd_iphone_magneto_psi
                0x000accdc                navdata_file
                0x000acce0                navdata_atm
 .bss           0x000acce4       0x20 ./obj/local/armeabi-v7a/libpc_ardrone.a(ardrone_general_navdata.o)
                0x000acd00                configWasDone
 .bss           0x000acd04      0x140 ./obj/local/armeabi-v7a/libpc_ardrone.a(ardrone_academy_navdata.o)
 .bss           0x000ace44       0x48 ./obj/local/armeabi-v7a/libpc_ardrone.a(ardrone_input.o)
 .bss           0x000ace8c      0xc14 ./obj/local/armeabi-v7a/libpc_ardrone.a(ardrone_tool_configuration.o)
 .bss           0x000adaa0       0x20 ./obj/local/armeabi-v7a/libpc_ardrone.a(ardrone_tool.o)
 .bss           0x000adac0        0x0 ./obj/local/armeabi-v7a/libpc_ardrone.a(config_wifi.o)
 .bss           0x000adac0       0x28 ./obj/local/armeabi-v7a/libpc_ardrone.a(video_com_stage.o)
                0x000adadc                DEBUG_bitrate
                0x000adae0                DEBUG_totalBytes
                0x000adae4                DEBUG_isTcp
 .bss           0x000adae8       0x14 ./obj/local/armeabi-v7a/libpc_ardrone.a(video_navdata_handler.o)
 .bss           0x000adafc      0x100 ./obj/local/armeabi-v7a/libpc_ardrone.a(ardrone_control.o)
 .bss           0x000adbfc        0x0 ./obj/local/armeabi-v7a/libpc_ardrone.a(ardrone_navdata_control.o)
 .bss           0x000adbfc       0x70 ./obj/local/armeabi-v7a/libpc_ardrone.a(ardrone_navdata_client.o)
 .bss           0x000adc6c      0x808 ./obj/local/armeabi-v7a/libpc_ardrone.a(iniparser.o)
 .bss           0x000ae474        0x0 ./obj/local/armeabi-v7a/libpc_ardrone.a(dictionary.o)
 .bss           0x000ae474        0x0 ./obj/local/armeabi-v7a/libpc_ardrone.a(navdata.o)
 .bss           0x000ae474        0x0 ./obj/local/armeabi-v7a/libpc_ardrone.a(config_keys.o)
 .bss           0x000ae474        0x0 ./obj/local/armeabi-v7a/libpc_ardrone.a(ardrone_time.o)
 .bss           0x000ae474        0x0 ./obj/local/armeabi-v7a/libpc_ardrone.a(ardrone_date.o)
 .bss           0x000ae474        0x0 ./obj/local/armeabi-v7a/libpc_ardrone.a(ardrone_gen_ids.o)
 .bss           0x000ae474        0x0 ./obj/local/armeabi-v7a/libpc_ardrone.a(video_stage_tcp.o)
 .bss           0x000ae474       0x10 ./obj/local/armeabi-v7a/libpc_ardrone.a(video_stage_merge_slices.o)
                0x000ae474                DEBUG_nbSlices
                0x000ae478                DEBUG_totalSlices
                0x000ae47c                DEBUG_missed
                0x000ae480                DEBUG_prevNumber
 .bss           0x000ae484        0x8 ./obj/local/armeabi-v7a/libpc_ardrone.a(video_stage_decoder.o)
                0x000ae484                DEBUG_decodingTimeUsec
                0x000ae488                video_stage_decoder_lastDetectedCodec
 .bss           0x000ae48c       0x98 ./obj/local/armeabi-v7a/libpc_ardrone.a(academy_download.o)
 .bss           0x000ae524      0x410 ./obj/local/armeabi-v7a/libpc_ardrone.a(ardrone_control_configuration.o)
 .bss           0x000ae934        0x0 ./obj/local/armeabi-v7a/libpc_ardrone.a(ardrone_control_ack.o)
 .bss           0x000ae934        0x4 ./obj/local/armeabi-v7a/libpc_ardrone.a(ardrone_crc_32.o)
                0x000ae934                crc_table_computed
 .bss           0x000ae938        0x0 ./obj/local/armeabi-v7a/libpc_ardrone.a(video_encapsulation.o)
 .bss           0x000ae938       0xc8 ./obj/local/armeabi-v7a/libpc_ardrone.a(video_stage_ffmpeg_decoder.o)
 .bss           0x000aea00       0x8c ./obj/local/armeabi-v7a/libpc_ardrone.a(video_stage_ittiam_decoder.o)
                0x000aea84                H264_DECHDL
                0x000aea88                MPEG4_DECHDL
 .bss           0x000aea8c       0x1c ./obj/local/armeabi-v7a/libvlib.a(vlib_stage_decode.o)
 .bss           0x000aeaa8        0x0 ./obj/local/armeabi-v7a/libvlib.a(video_codec.o)
 .bss           0x000aeaa8        0x0 ./obj/local/armeabi-v7a/libvlib.a(video_controller.o)
 .bss           0x000aeaa8        0x0 ./obj/local/armeabi-v7a/libvlib.a(video_packetizer.o)
 .bss           0x000aeaa8        0x0 ./obj/local/armeabi-v7a/libvlib.a(video_quantizer.o)
 .bss           0x000aeaa8        0x0 ./obj/local/armeabi-v7a/libvlib.a(p263_codec.o)
 .bss           0x000aeaa8       0x10 ./obj/local/armeabi-v7a/libvlib.a(p263_huffman.o)
                0x000aeaa8                vlc_mcbpc_ipictures_tree
                0x000aeaac                vlc_cbpy_standard_tree
                0x000aeab0                vlc_tcoeff_tree
                0x000aeab4                mvd_vlc_tree
 .bss           0x000aeab8        0x0 ./obj/local/armeabi-v7a/libvlib.a(p263_mb_layer.o)
 .bss           0x000aeab8        0x0 ./obj/local/armeabi-v7a/libvlib.a(p263_gob_layer.o)
 .bss           0x000aeab8        0x0 ./obj/local/armeabi-v7a/libvlib.a(p263_picture_layer.o)
 .bss           0x000aeab8        0x0 ./obj/local/armeabi-v7a/libvlib.a(p264_codec.o)
 .bss           0x000aeab8        0x0 ./obj/local/armeabi-v7a/libvlib.a(p264_gob_layer.o)
 .bss           0x000aeab8        0x0 ./obj/local/armeabi-v7a/libvlib.a(p264_mb_layer.o)
 .bss           0x000aeab8        0x0 ./obj/local/armeabi-v7a/libvlib.a(p264_picture_layer.o)
 .bss           0x000aeab8        0x0 ./obj/local/armeabi-v7a/libvlib.a(video_p264.o)
 .bss           0x000aeab8        0x0 ./obj/local/armeabi-v7a/libvlib.a(uvlc_codec.o)
 .bss           0x000aeab8        0x0 ./obj/local/armeabi-v7a/libvlib.a(uvlc_gob_layer.o)
 .bss           0x000aeab8        0x0 ./obj/local/armeabi-v7a/libvlib.a(uvlc_mb_layer.o)
 .bss           0x000aeab8        0x0 ./obj/local/armeabi-v7a/libvlib.a(uvlc_picture_layer.o)
 .bss           0x000aeab8        0x4 ./obj/local/armeabi-v7a/libvlib.a(video_utils.o)
 .bss           0x000aeabc        0x0 ./obj/local/armeabi-v7a/libvlib.a(video_mem32.o)
 .bss           0x000aeabc        0x0 ./obj/local/armeabi-v7a/libvlib.a(video_dct.o)
 .bss           0x000aeabc        0x0 ./obj/local/armeabi-v7a/libvlib.a(video_huffman.o)
 .bss           0x000aeabc        0x0 ./obj/local/armeabi-v7a/libvlib.a(video_macroblock.o)
 .bss           0x000aeabc        0x0 ./obj/local/armeabi-v7a/libvlib.a(video_picture.o)
 .bss           0x000aeabc        0x0 ./obj/local/armeabi-v7a/libvlib.a(p264_zigzag.o)
 .bss           0x000aeabc        0x0 ./obj/local/armeabi-v7a/libvlib.a(p264_transform.o)
 .bss           0x000aeabc        0x0 ./obj/local/armeabi-v7a/libvlib.a(p264_Qp.o)
 .bss           0x000aeabc        0x0 ./obj/local/armeabi-v7a/libvlib.a(p264_intra_pred.o)
 .bss           0x000aeabc        0x0 ./obj/local/armeabi-v7a/libvlib.a(p264_inter_mc.o)
 .bss           0x000aeabc        0x0 ./obj/local/armeabi-v7a/libvlib.a(p264_merge.o)
 .bss           0x000aeabc        0x0 ./obj/local/armeabi-v7a/libvlib.a(p264.o)
 .bss           0x000aeabc        0x0 ./obj/local/armeabi-v7a/libvlib.a(uvlc.o)
 .bss           0x000aeabc        0x0 ./obj/local/armeabi-v7a/libsdk.a(vp_os_malloc.o)
 .bss           0x000aeabc        0x0 ./obj/local/armeabi-v7a/libsdk.a(vp_api.o)
 .bss           0x000aeabc       0x44 ./obj/local/armeabi-v7a/libsdk.a(vp_api_supervisor.o)
 .bss           0x000aeb00        0x0 ./obj/local/armeabi-v7a/libsdk.a(vp_api_thread_helper.o)
 .bss           0x000aeb00      0x474 ./obj/local/armeabi-v7a/libsdk.a(ATcodec_api.o)
 .bss           0x000aef74        0x0 ./obj/local/armeabi-v7a/libsdk.a(vp_com.o)
 .bss           0x000aef74        0x0 ./obj/local/armeabi-v7a/libsdk.a(vp_com_error.o)
 .bss           0x000aef74        0x0 ./obj/local/armeabi-v7a/libsdk.a(vp_os_signal.o)
 .bss           0x000aef74        0x0 ./obj/local/armeabi-v7a/libsdk.a(vp_os_delay.o)
 .bss           0x000aef74        0xc ./obj/local/armeabi-v7a/libsdk.a(vp_os_thread.o)
 .bss           0x000aef80        0x0 ./obj/local/armeabi-v7a/libsdk.a(vp_com_wifi.o)
 .bss           0x000aef80       0x10 ./obj/local/armeabi-v7a/libsdk.a(vp_com_socket.o)
 .bss           0x000aef90        0xc ./obj/local/armeabi-v7a/libsdk.a(vp_com_socket_utils.o)
 .bss           0x000aef9c        0x0 ./obj/local/armeabi-v7a/libsdk.a(vp_com_config_itf.o)
 .bss           0x000aef9c      0x144 ./obj/local/armeabi-v7a/libsdk.a(vp_os_error_handling.o)
 .bss           0x000af0e0        0x0 ./obj/local/armeabi-v7a/libsdk.a(ATcodec_Memory.o)
 .bss           0x000af0e0        0x0 ./obj/local/armeabi-v7a/libsdk.a(ATcodec_Buffer.o)
 .bss           0x000af0e0        0x0 ./obj/local/armeabi-v7a/libsdk.a(ATcodec.o)
 .bss           0x000af0e0        0x0 ./obj/local/armeabi-v7a/libsdk.a(ATcodec_Tree.o)
 .bss           0x000af0e0        0x0 /home/n-brulez/dev/sdk/android-ndk-r7/toolchains/arm-linux-androideabi-4.4.3/prebuilt/linux-x86/bin/../lib/gcc/arm-linux-androideabi/4.4.3/libgcc.a(_udivsi3.o)
 .bss           0x000af0e0        0x0 /home/n-brulez/dev/sdk/android-ndk-r7/toolchains/arm-linux-androideabi-4.4.3/prebuilt/linux-x86/bin/../lib/gcc/arm-linux-androideabi/4.4.3/libgcc.a(_divsi3.o)
 .bss           0x000af0e0        0x0 /home/n-brulez/dev/sdk/android-ndk-r7/toolchains/arm-linux-androideabi-4.4.3/prebuilt/linux-x86/bin/../lib/gcc/arm-linux-androideabi/4.4.3/libgcc.a(_arm_addsubdf3.o)
 .bss           0x000af0e0        0x0 /home/n-brulez/dev/sdk/android-ndk-r7/toolchains/arm-linux-androideabi-4.4.3/prebuilt/linux-x86/bin/../lib/gcc/arm-linux-androideabi/4.4.3/libgcc.a(_arm_muldivdf3.o)
 .bss           0x000af0e0        0x0 /home/n-brulez/dev/sdk/android-ndk-r7/toolchains/arm-linux-androideabi-4.4.3/prebuilt/linux-x86/bin/../lib/gcc/arm-linux-androideabi/4.4.3/libgcc.a(_arm_cmpdf2.o)
 .bss           0x000af0e0        0x0 /home/n-brulez/dev/sdk/android-ndk-r7/toolchains/arm-linux-androideabi-4.4.3/prebuilt/linux-x86/bin/../lib/gcc/arm-linux-androideabi/4.4.3/libgcc.a(_arm_fixdfsi.o)
 .bss           0x000af0e0        0x0 /home/n-brulez/dev/sdk/android-ndk-r7/toolchains/arm-linux-androideabi-4.4.3/prebuilt/linux-x86/bin/../lib/gcc/arm-linux-androideabi/4.4.3/libgcc.a(_arm_truncdfsf2.o)
 .bss           0x000af0e0        0x0 /home/n-brulez/dev/sdk/android-ndk-r7/toolchains/arm-linux-androideabi-4.4.3/prebuilt/linux-x86/bin/../lib/gcc/arm-linux-androideabi/4.4.3/libgcc.a(_arm_addsubsf3.o)
 .bss           0x000af0e0        0x0 /home/n-brulez/dev/sdk/android-ndk-r7/toolchains/arm-linux-androideabi-4.4.3/prebuilt/linux-x86/bin/../lib/gcc/arm-linux-androideabi/4.4.3/libgcc.a(_arm_muldivsf3.o)
 .bss           0x000af0e0        0x0 /home/n-brulez/dev/sdk/android-ndk-r7/toolchains/arm-linux-androideabi-4.4.3/prebuilt/linux-x86/bin/../lib/gcc/arm-linux-androideabi/4.4.3/libgcc.a(_arm_cmpsf2.o)
 .bss           0x000af0e0        0x0 /home/n-brulez/dev/sdk/android-ndk-r7/toolchains/arm-linux-androideabi-4.4.3/prebuilt/linux-x86/bin/../lib/gcc/arm-linux-androideabi/4.4.3/libgcc.a(_arm_fixunssfsi.o)
 .bss           0x000af0e0        0x0 /home/n-brulez/dev/sdk/android-ndk-r7/toolchains/arm-linux-androideabi-4.4.3/prebuilt/linux-x86/bin/../lib/gcc/arm-linux-androideabi/4.4.3/libgcc.a(_aeabi_ldivmod.o)
 .bss           0x000af0e0        0x0 /home/n-brulez/dev/sdk/android-ndk-r7/toolchains/arm-linux-androideabi-4.4.3/prebuilt/linux-x86/bin/../lib/gcc/arm-linux-androideabi/4.4.3/libgcc.a(_aeabi_uldivmod.o)
 .bss           0x000af0e0        0x0 /home/n-brulez/dev/sdk/android-ndk-r7/toolchains/arm-linux-androideabi-4.4.3/prebuilt/linux-x86/bin/../lib/gcc/arm-linux-androideabi/4.4.3/libgcc.a(_dvmd_lnx.o)
 .bss           0x000af0e0        0x0 /home/n-brulez/dev/sdk/android-ndk-r7/toolchains/arm-linux-androideabi-4.4.3/prebuilt/linux-x86/bin/../lib/gcc/arm-linux-androideabi/4.4.3/libgcc.a(bpabi.o)
 .bss           0x000af0e0        0x0 /home/n-brulez/dev/sdk/android-ndk-r7/toolchains/arm-linux-androideabi-4.4.3/prebuilt/linux-x86/bin/../lib/gcc/arm-linux-androideabi/4.4.3/libgcc.a(unwind-arm.o)
 .bss           0x000af0e0        0x0 /home/n-brulez/dev/sdk/android-ndk-r7/toolchains/arm-linux-androideabi-4.4.3/prebuilt/linux-x86/bin/../lib/gcc/arm-linux-androideabi/4.4.3/libgcc.a(libunwind.o)
 .bss           0x000af0e0        0x0 /home/n-brulez/dev/sdk/android-ndk-r7/toolchains/arm-linux-androideabi-4.4.3/prebuilt/linux-x86/bin/../lib/gcc/arm-linux-androideabi/4.4.3/libgcc.a(pr-support.o)
 .bss           0x000af0e0        0x0 /home/n-brulez/dev/sdk/android-ndk-r7/toolchains/arm-linux-androideabi-4.4.3/prebuilt/linux-x86/bin/../lib/gcc/arm-linux-androideabi/4.4.3/libgcc.a(_divdi3.o)
 .bss           0x000af0e0        0x0 /home/n-brulez/dev/sdk/android-ndk-r7/toolchains/arm-linux-androideabi-4.4.3/prebuilt/linux-x86/bin/../lib/gcc/arm-linux-androideabi/4.4.3/libgcc.a(_udivdi3.o)
 .bss           0x000af0e0        0x0 /home/n-brulez/dev/sdk/android-ndk-r7/platforms/android-14/arch-arm/usr/lib/crtend_so.o
 *(COMMON)
 COMMON         0x000af0e0       0x68 ./obj/local/armeabi-v7a/objs/adfreeflight/app.o
                0x000af0e0                drone_address
                0x000af0f0                ovsc
                0x000af134                vlat
 COMMON         0x000af148       0x50 ./obj/local/armeabi-v7a/objs/adfreeflight/ControlData.o
                0x000af148                ctrldata
 COMMON         0x000af198      0x77c ./obj/local/armeabi-v7a/objs/adfreeflight/Stubs/drone_stub.o
                0x000af198                errorState
                0x000af19c                magnetoEnabled
                0x000af1a0                ctrlnavdata
 *fill*         0x000af914        0x4 00
 COMMON         0x000af918       0x30 ./obj/local/armeabi-v7a/objs/adfreeflight/Stubs/transcoding_service_stub.o
                0x000af918                filename
                0x000af91c                fmt
                0x000af920                video_pts
                0x000af928                tmp_picture
                0x000af92c                oc
                0x000af930                video_st
                0x000af934                previous_frame
                0x000af944                picture
 COMMON         0x000af948       0x48 ./obj/local/armeabi-v7a/objs/adfreeflight/Stubs/gl_bg_video_sprite_stub.o
                0x000af948                texture
                0x000af98c                scaling
 COMMON         0x000af990      0x778 ./obj/local/armeabi-v7a/objs/adfreeflight/NavData/nav_data.o
                0x000af990                instance_navdata_mutex
                0x000af994                inst_nav
 COMMON         0x000b0108        0x8 ./obj/local/armeabi-v7a/objs/adfreeflight/Video/video_stage_renderer.o
                0x000b0108                oldsize
 COMMON         0x000b0110      0x41c ./obj/local/armeabi-v7a/libpc_ardrone.a(video_stage_encoded_recorder.o)
                0x000b0110                video_stage_encoded_recorder_config
 COMMON         0x000b052c       0x88 ./obj/local/armeabi-v7a/libpc_ardrone.a(video_recorder_pipeline.o)
                0x000b052c                record_icc
 COMMON         0x000b05b4       0x48 ./obj/local/armeabi-v7a/libpc_ardrone.a(video_stage.o)
                0x000b05b4                video_pipeline_handle
                0x000b05b8                vec
                0x000b05e4                icc
 COMMON         0x000b05fc       0x64 ./obj/local/armeabi-v7a/libpc_ardrone.a(ardrone_at_mutex.o)
                0x000b05fc                ids
 COMMON         0x000b0660      0x114 ./obj/local/armeabi-v7a/libpc_ardrone.a(academy_stage_recorder.o)
                0x000b0660                ardrone_academy_stage_recorder_config
 COMMON         0x000b0774     0x300c ./obj/local/armeabi-v7a/libpc_ardrone.a(ardrone_tool_configuration.o)
                0x000b0774                ardrone_application_default_config
                0x000b1778                ardrone_control_config_default
                0x000b277c                ardrone_control_config
 COMMON         0x000b3780        0xc ./obj/local/armeabi-v7a/libpc_ardrone.a(ardrone_tool.o)
                0x000b3780                ardroneVersion
 COMMON         0x000b378c       0x14 ./obj/local/armeabi-v7a/libpc_ardrone.a(video_navdata_handler.o)
                0x000b378c                hdvideo_maximum_kilobytes
                0x000b3790                hdvideo_remaining_kilobytes
                0x000b3794                hdvideo_fifo_fill_percentage
                0x000b3798                hdvideo_retrieving_progress
                0x000b379c                hdvideo_remaining_frames
 COMMON         0x000b37a0      0xf74 ./obj/local/armeabi-v7a/libpc_ardrone.a(ardrone_navdata_client.o)
                0x000b37a0                navdata_unpacked
                0x000b3f14                navdata_buffer
 COMMON         0x000b4714       0x20 ./obj/local/armeabi-v7a/libpc_ardrone.a(config_keys.o)
                0x000b4714                available_configurations
 COMMON         0x000b4734      0x400 ./obj/local/armeabi-v7a/libpc_ardrone.a(ardrone_crc_32.o)
                0x000b4734                crc_table
 COMMON         0x000b4b34      0x340 ./obj/local/armeabi-v7a/libpc_ardrone.a(video_stage_ittiam_decoder.o)
                0x000b4b34                mpeg4_get_display_frame_ip
                0x000b4c40                mpeg4_video_decode_op
                0x000b4c60                mpeg4_get_display_frame_op
                0x000b4cb8                mpeg4_ps_it_mem
                0x000b4cbc                h264_get_display_frame_ip
                0x000b4dc8                mpeg4_video_decode_ip
                0x000b4ddc                h264_video_decode_op
                0x000b4dfc                h264_ps_it_mem
                0x000b4e00                h264_get_display_frame_op
                0x000b4e58                mpeg4_mem_rec
                0x000b4e5c                h264_video_decode_ip
                0x000b4e70                h264_mem_rec
 COMMON         0x000b4e74    0x13880 ./obj/local/armeabi-v7a/libsdk.a(ATcodec_api.o)
                0x000b4e74                stack_ATcodec_Commands_Client
                0x000beab4                stack_ATcodec_Commands_Server
 COMMON         0x000c86f4       0x20 ./obj/local/armeabi-v7a/libsdk.a(vp_com.o)
                0x000c86f4                vp_com_pin_code
 COMMON         0x000c8714     0x2000 ./obj/local/armeabi-v7a/libsdk.a(vp_com_socket.o)
                0x000c8714                stack_vp_com_server
                0x000ca714                . = ALIGN ((. != 0x0)?0x4:0x1)
                0x000ca714                _bss_end__ = .
                0x000ca714                __bss_end__ = .
                0x000ca714                . = ALIGN (0x4)
                0x000ca714                . = ALIGN (0x4)
                0x000ca714                __end__ = .
                0x000ca714                _end = .
                0x000ca714                PROVIDE (end, .)
                0x000ca714                . = DATA_SEGMENT_END (.)

.stab
 *(.stab)

.stabstr
 *(.stabstr)

.stab.excl
 *(.stab.excl)

.stab.exclstr
 *(.stab.exclstr)

.stab.index
 *(.stab.index)

.stab.indexstr
 *(.stab.indexstr)

.ARM.attributes
                0x00000000       0x31
 .ARM.attributes
                0x00000000       0x19 /home/n-brulez/dev/sdk/android-ndk-r7/platforms/android-14/arch-arm/usr/lib/crtbegin_so.o
 .ARM.attributes
                0x00000019       0x31 ./obj/local/armeabi-v7a/objs/adfreeflight/app.o
 .ARM.attributes
                0x0000004a       0x31 ./obj/local/armeabi-v7a/objs/adfreeflight/video_stage_io_file.o
 .ARM.attributes
                0x0000007b       0x31 ./obj/local/armeabi-v7a/objs/adfreeflight/hardware_capabilites.o
 .ARM.attributes
                0x000000ac       0x31 ./obj/local/armeabi-v7a/objs/adfreeflight/Controller/ardrone_controller.o
 .ARM.attributes
                0x000000dd       0x31 ./obj/local/armeabi-v7a/objs/adfreeflight/ControlData.o
 .ARM.attributes
                0x0000010e       0x31 ./obj/local/armeabi-v7a/objs/adfreeflight/Callbacks/drone_proxy_callbacks.o
 .ARM.attributes
                0x0000013f       0x31 ./obj/local/armeabi-v7a/objs/adfreeflight/Callbacks/java_callbacks.o
 .ARM.attributes
                0x00000170       0x31 ./obj/local/armeabi-v7a/objs/adfreeflight/Plf/plf.o
 .ARM.attributes
                0x000001a1       0x31 ./obj/local/armeabi-v7a/objs/adfreeflight/Stubs/drone_stub.o
 .ARM.attributes
                0x000001d2       0x31 ./obj/local/armeabi-v7a/objs/adfreeflight/Stubs/drone_config_stub.o
 .ARM.attributes
                0x00000203       0x31 ./obj/local/armeabi-v7a/objs/adfreeflight/Stubs/ftp_client_stub.o
 .ARM.attributes
                0x00000234       0x31 ./obj/local/armeabi-v7a/objs/adfreeflight/Stubs/plf_file_stub.o
 .ARM.attributes
                0x00000265       0x31 ./obj/local/armeabi-v7a/objs/adfreeflight/Stubs/transcoding_service_stub.o
 .ARM.attributes
                0x00000296       0x31 ./obj/local/armeabi-v7a/objs/adfreeflight/Stubs/gl_bg_video_sprite_stub.o
 .ARM.attributes
                0x000002c7       0x31 ./obj/local/armeabi-v7a/objs/adfreeflight/NavData/nav_data.o
 .ARM.attributes
                0x000002f8       0x31 ./obj/local/armeabi-v7a/objs/adfreeflight/Video/video_stage_renderer.o
 .ARM.attributes
                0x00000329       0x31 ./obj/local/armeabi-v7a/objs/adfreeflight/Video/frame_rate.o
 .ARM.attributes
                0x0000035a       0x31 ./obj/local/armeabi-v7a/objs/adfreeflight/Controller/virtual_gamepad.o
 .ARM.attributes
                0x0000038b       0x31 ./obj/local/armeabi-v7a/objs/adfreeflight/Video/opengl_stage.o
 .ARM.attributes
                0x000003bc       0x31 ./obj/local/armeabi-v7a/objs/adfreeflight/Video/opengl_shader.o
 .ARM.attributes
                0x000003ed       0x31 ./obj/local/armeabi-v7a/objs/adfreeflight/Video/opengl_texture.o
 .ARM.attributes
                0x0000041e       0x2b ./obj/local/armeabi-v7a/libpc_ardrone.a(ardrone_version.o)
 .ARM.attributes
                0x00000449       0x2b ./obj/local/armeabi-v7a/libpc_ardrone.a(ardrone_ftp.o)
 .ARM.attributes
                0x00000474       0x2b ./obj/local/armeabi-v7a/libpc_ardrone.a(ardrone_video_atoms.o)
 .ARM.attributes
                0x0000049f       0x2b ./obj/local/armeabi-v7a/libpc_ardrone.a(ardrone_video_encapsuler.o)
 .ARM.attributes
                0x000004ca       0x2b ./obj/local/armeabi-v7a/libpc_ardrone.a(video_stage_encoded_recorder.o)
 .ARM.attributes
                0x000004f5       0x2b ./obj/local/armeabi-v7a/libpc_ardrone.a(video_stage_latency_estimation.o)
 .ARM.attributes
                0x00000520       0x2b ./obj/local/armeabi-v7a/libpc_ardrone.a(video_recorder_pipeline.o)
 .ARM.attributes
                0x0000054b       0x2b ./obj/local/armeabi-v7a/libpc_ardrone.a(video_stage.o)
 .ARM.attributes
                0x00000576       0x2b ./obj/local/armeabi-v7a/libpc_ardrone.a(AR_Ftw.o)
 .ARM.attributes
                0x000005a1       0x2b ./obj/local/armeabi-v7a/libpc_ardrone.a(ardrone_at_mutex.o)
 .ARM.attributes
                0x000005cc       0x2b ./obj/local/armeabi-v7a/libpc_ardrone.a(academy.o)
 .ARM.attributes
                0x000005f7       0x2b ./obj/local/armeabi-v7a/libpc_ardrone.a(academy_upload.o)
 .ARM.attributes
                0x00000622       0x2b ./obj/local/armeabi-v7a/libpc_ardrone.a(academy_stage_recorder.o)
 .ARM.attributes
                0x0000064d       0x2b ./obj/local/armeabi-v7a/libpc_ardrone.a(ardrone_navdata_file.o)
 .ARM.attributes
                0x00000678       0x2b ./obj/local/armeabi-v7a/libpc_ardrone.a(ardrone_general_navdata.o)
 .ARM.attributes
                0x000006a3       0x2b ./obj/local/armeabi-v7a/libpc_ardrone.a(ardrone_academy_navdata.o)
 .ARM.attributes
                0x000006ce       0x2b ./obj/local/armeabi-v7a/libpc_ardrone.a(ardrone_input.o)
 .ARM.attributes
                0x000006f9       0x2b ./obj/local/armeabi-v7a/libpc_ardrone.a(ardrone_tool_configuration.o)
 .ARM.attributes
                0x00000724       0x2b ./obj/local/armeabi-v7a/libpc_ardrone.a(ardrone_tool.o)
 .ARM.attributes
                0x0000074f       0x2b ./obj/local/armeabi-v7a/libpc_ardrone.a(config_wifi.o)
 .ARM.attributes
                0x0000077a       0x2b ./obj/local/armeabi-v7a/libpc_ardrone.a(video_com_stage.o)
 .ARM.attributes
                0x000007a5       0x2b ./obj/local/armeabi-v7a/libpc_ardrone.a(video_navdata_handler.o)
 .ARM.attributes
                0x000007d0       0x2b ./obj/local/armeabi-v7a/libpc_ardrone.a(ardrone_control.o)
 .ARM.attributes
                0x000007fb       0x2b ./obj/local/armeabi-v7a/libpc_ardrone.a(ardrone_navdata_control.o)
 .ARM.attributes
                0x00000826       0x2b ./obj/local/armeabi-v7a/libpc_ardrone.a(ardrone_navdata_client.o)
 .ARM.attributes
                0x00000851       0x2b ./obj/local/armeabi-v7a/libpc_ardrone.a(iniparser.o)
 .ARM.attributes
                0x0000087c       0x2b ./obj/local/armeabi-v7a/libpc_ardrone.a(dictionary.o)
 .ARM.attributes
                0x000008a7       0x2b ./obj/local/armeabi-v7a/libpc_ardrone.a(navdata.o)
 .ARM.attributes
                0x000008d2       0x2b ./obj/local/armeabi-v7a/libpc_ardrone.a(config_keys.o)
 .ARM.attributes
                0x000008fd       0x2b ./obj/local/armeabi-v7a/libpc_ardrone.a(ardrone_time.o)
 .ARM.attributes
                0x00000928       0x2b ./obj/local/armeabi-v7a/libpc_ardrone.a(ardrone_date.o)
 .ARM.attributes
                0x00000953       0x2b ./obj/local/armeabi-v7a/libpc_ardrone.a(ardrone_gen_ids.o)
 .ARM.attributes
                0x0000097e       0x2b ./obj/local/armeabi-v7a/libpc_ardrone.a(video_stage_tcp.o)
 .ARM.attributes
                0x000009a9       0x2b ./obj/local/armeabi-v7a/libpc_ardrone.a(video_stage_merge_slices.o)
 .ARM.attributes
                0x000009d4       0x2b ./obj/local/armeabi-v7a/libpc_ardrone.a(video_stage_decoder.o)
 .ARM.attributes
                0x000009ff       0x2b ./obj/local/armeabi-v7a/libpc_ardrone.a(academy_download.o)
 .ARM.attributes
                0x00000a2a       0x2b ./obj/local/armeabi-v7a/libpc_ardrone.a(ardrone_control_configuration.o)
 .ARM.attributes
                0x00000a55       0x2b ./obj/local/armeabi-v7a/libpc_ardrone.a(ardrone_control_ack.o)
 .ARM.attributes
                0x00000a80       0x2b ./obj/local/armeabi-v7a/libpc_ardrone.a(ardrone_crc_32.o)
 .ARM.attributes
                0x00000aab       0x2b ./obj/local/armeabi-v7a/libpc_ardrone.a(video_encapsulation.o)
 .ARM.attributes
                0x00000ad6       0x2b ./obj/local/armeabi-v7a/libpc_ardrone.a(video_stage_ffmpeg_decoder.o)
 .ARM.attributes
                0x00000b01       0x2b ./obj/local/armeabi-v7a/libpc_ardrone.a(video_stage_ittiam_decoder.o)
 .ARM.attributes
                0x00000b2c       0x2b ./obj/local/armeabi-v7a/libvlib.a(vlib_stage_decode.o)
 .ARM.attributes
                0x00000b57       0x2b ./obj/local/armeabi-v7a/libvlib.a(video_codec.o)
 .ARM.attributes
                0x00000b82       0x2b ./obj/local/armeabi-v7a/libvlib.a(video_controller.o)
 .ARM.attributes
                0x00000bad       0x2b ./obj/local/armeabi-v7a/libvlib.a(video_packetizer.o)
 .ARM.attributes
                0x00000bd8       0x2b ./obj/local/armeabi-v7a/libvlib.a(video_quantizer.o)
 .ARM.attributes
                0x00000c03       0x2b ./obj/local/armeabi-v7a/libvlib.a(p263_codec.o)
 .ARM.attributes
                0x00000c2e       0x2b ./obj/local/armeabi-v7a/libvlib.a(p263_huffman.o)
 .ARM.attributes
                0x00000c59       0x2b ./obj/local/armeabi-v7a/libvlib.a(p263_mb_layer.o)
 .ARM.attributes
                0x00000c84       0x2b ./obj/local/armeabi-v7a/libvlib.a(p263_gob_layer.o)
 .ARM.attributes
                0x00000caf       0x2b ./obj/local/armeabi-v7a/libvlib.a(p263_picture_layer.o)
 .ARM.attributes
                0x00000cda       0x2b ./obj/local/armeabi-v7a/libvlib.a(p264_codec.o)
 .ARM.attributes
                0x00000d05       0x2b ./obj/local/armeabi-v7a/libvlib.a(p264_gob_layer.o)
 .ARM.attributes
                0x00000d30       0x2b ./obj/local/armeabi-v7a/libvlib.a(p264_mb_layer.o)
 .ARM.attributes
                0x00000d5b       0x2b ./obj/local/armeabi-v7a/libvlib.a(p264_picture_layer.o)
 .ARM.attributes
                0x00000d86       0x2b ./obj/local/armeabi-v7a/libvlib.a(video_p264.o)
 .ARM.attributes
                0x00000db1       0x2b ./obj/local/armeabi-v7a/libvlib.a(uvlc_codec.o)
 .ARM.attributes
                0x00000ddc       0x2b ./obj/local/armeabi-v7a/libvlib.a(uvlc_gob_layer.o)
 .ARM.attributes
                0x00000e07       0x2b ./obj/local/armeabi-v7a/libvlib.a(uvlc_mb_layer.o)
 .ARM.attributes
                0x00000e32       0x2b ./obj/local/armeabi-v7a/libvlib.a(uvlc_picture_layer.o)
 .ARM.attributes
                0x00000e5d       0x2b ./obj/local/armeabi-v7a/libvlib.a(video_utils.o)
 .ARM.attributes
                0x00000e88       0x2b ./obj/local/armeabi-v7a/libvlib.a(video_mem32.o)
 .ARM.attributes
                0x00000eb3       0x2b ./obj/local/armeabi-v7a/libvlib.a(video_dct.o)
 .ARM.attributes
                0x00000ede       0x2b ./obj/local/armeabi-v7a/libvlib.a(video_huffman.o)
 .ARM.attributes
                0x00000f09       0x2b ./obj/local/armeabi-v7a/libvlib.a(video_macroblock.o)
 .ARM.attributes
                0x00000f34       0x2b ./obj/local/armeabi-v7a/libvlib.a(video_picture.o)
 .ARM.attributes
                0x00000f5f       0x2b ./obj/local/armeabi-v7a/libvlib.a(p264_zigzag.o)
 .ARM.attributes
                0x00000f8a       0x2b ./obj/local/armeabi-v7a/libvlib.a(p264_transform.o)
 .ARM.attributes
                0x00000fb5       0x2b ./obj/local/armeabi-v7a/libvlib.a(p264_Qp.o)
 .ARM.attributes
                0x00000fe0       0x2b ./obj/local/armeabi-v7a/libvlib.a(p264_intra_pred.o)
 .ARM.attributes
                0x0000100b       0x2b ./obj/local/armeabi-v7a/libvlib.a(p264_inter_mc.o)
 .ARM.attributes
                0x00001036       0x2b ./obj/local/armeabi-v7a/libvlib.a(p264_merge.o)
 .ARM.attributes
                0x00001061       0x2b ./obj/local/armeabi-v7a/libvlib.a(p264.o)
 .ARM.attributes
                0x0000108c       0x2b ./obj/local/armeabi-v7a/libvlib.a(uvlc.o)
 .ARM.attributes
                0x000010b7       0x2b ./obj/local/armeabi-v7a/libsdk.a(vp_os_malloc.o)
 .ARM.attributes
                0x000010e2       0x2b ./obj/local/armeabi-v7a/libsdk.a(vp_api.o)
 .ARM.attributes
                0x0000110d       0x2b ./obj/local/armeabi-v7a/libsdk.a(vp_api_supervisor.o)
 .ARM.attributes
                0x00001138       0x2b ./obj/local/armeabi-v7a/libsdk.a(vp_api_thread_helper.o)
 .ARM.attributes
                0x00001163       0x2b ./obj/local/armeabi-v7a/libsdk.a(ATcodec_api.o)
 .ARM.attributes
                0x0000118e       0x2b ./obj/local/armeabi-v7a/libsdk.a(vp_com.o)
 .ARM.attributes
                0x000011b9       0x2b ./obj/local/armeabi-v7a/libsdk.a(vp_com_error.o)
 .ARM.attributes
                0x000011e4       0x2b ./obj/local/armeabi-v7a/libsdk.a(vp_os_signal.o)
 .ARM.attributes
                0x0000120f       0x2b ./obj/local/armeabi-v7a/libsdk.a(vp_os_delay.o)
 .ARM.attributes
                0x0000123a       0x2b ./obj/local/armeabi-v7a/libsdk.a(vp_os_thread.o)
 .ARM.attributes
                0x00001265       0x2b ./obj/local/armeabi-v7a/libsdk.a(vp_com_wifi.o)
 .ARM.attributes
                0x00001290       0x2b ./obj/local/armeabi-v7a/libsdk.a(vp_com_socket.o)
 .ARM.attributes
                0x000012bb       0x2b ./obj/local/armeabi-v7a/libsdk.a(vp_com_socket_utils.o)
 .ARM.attributes
                0x000012e6       0x2b ./obj/local/armeabi-v7a/libsdk.a(vp_com_config_itf.o)
 .ARM.attributes
                0x00001311       0x2b ./obj/local/armeabi-v7a/libsdk.a(vp_os_error_handling.o)
 .ARM.attributes
                0x0000133c       0x2b ./obj/local/armeabi-v7a/libsdk.a(ATcodec_Memory.o)
 .ARM.attributes
                0x00001367       0x2b ./obj/local/armeabi-v7a/libsdk.a(ATcodec_Buffer.o)
 .ARM.attributes
                0x00001392       0x2b ./obj/local/armeabi-v7a/libsdk.a(ATcodec.o)
 .ARM.attributes
                0x000013bd       0x2b ./obj/local/armeabi-v7a/libsdk.a(ATcodec_Tree.o)
 .ARM.attributes
                0x000013e8       0x44 ./obj/local/armeabi-v7a/h264_dec_lib.a(decoder_api_main.rel.rvds.o)
 .ARM.attributes
                0x0000142c       0x44 ./obj/local/armeabi-v7a/h264_dec_lib.a(h264dec_ittiam_api_define.rel.rvds.o)
 .ARM.attributes
                0x00001470       0x44 ./obj/local/armeabi-v7a/h264_dec_lib.a(cncl.rel.rvds.o)
 .ARM.attributes
                0x000014b4       0x44 ./obj/local/armeabi-v7a/h264_dec_lib.a(bufapi_ittiam_ialg.rel.rvds.o)
 .ARM.attributes
                0x000014f8       0x44 ./obj/local/armeabi-v7a/h264_dec_lib.a(bufferAPI.rel.rvds.o)
 .ARM.attributes
                0x0000153c       0x44 ./obj/local/armeabi-v7a/h264_dec_lib.a(decInterface.rel.rvds.o)
 .ARM.attributes
                0x00001580       0x44 ./obj/local/armeabi-v7a/h264_dec_lib.a(decPicDelimitProc.rel.rvds.o)
 .ARM.attributes
                0x000015c4       0x44 ./obj/local/armeabi-v7a/h264_dec_lib.a(decodeSlice.rel.rvds.o)
 .ARM.attributes
                0x00001608       0x44 ./obj/local/armeabi-v7a/h264_dec_lib.a(decodeUVLC.rel.rvds.o)
 .ARM.attributes
                0x0000164c       0x44 ./obj/local/armeabi-v7a/h264_dec_lib.a(dpbManager.rel.rvds.o)
 .ARM.attributes
                0x00001690       0x44 ./obj/local/armeabi-v7a/h264_dec_lib.a(dpb_opt.rel.rvds.o)
 .ARM.attributes
                0x000016d4       0x44 ./obj/local/armeabi-v7a/h264_dec_lib.a(errorhandler.rel.rvds.o)
 .ARM.attributes
                0x00001718       0x44 ./obj/local/armeabi-v7a/h264_dec_lib.a(gaps_in_frm.rel.rvds.o)
 .ARM.attributes
                0x0000175c       0x42 ./obj/local/armeabi-v7a/h264_dec_lib.a(globals.rel.rvds.o)
 .ARM.attributes
                0x0000179e       0x44 ./obj/local/armeabi-v7a/h264_dec_lib.a(memRequest.rel.rvds.o)
 .ARM.attributes
                0x000017e2       0x44 ./obj/local/armeabi-v7a/h264_dec_lib.a(memoryAPI.rel.rvds.o)
 .ARM.attributes
                0x00001826       0x44 ./obj/local/armeabi-v7a/h264_dec_lib.a(nal.rel.rvds.o)
 .ARM.attributes
                0x0000186a       0x42 ./obj/local/armeabi-v7a/h264_dec_lib.a(tables.rel.rvds.o)
 .ARM.attributes
                0x000018ac       0x44 ./obj/local/armeabi-v7a/h264_dec_lib.a(format_conv_to_422i.rel.rvds.o)
 .ARM.attributes
                0x000018f0       0x36 ./obj/local/armeabi-v7a/h264_dec_lib.a(arm_computeBS.rel.rvds.o)
 .ARM.attributes
                0x00001926       0x36 ./obj/local/armeabi-v7a/h264_dec_lib.a(arm_copyRef.rel.rvds.o)
 .ARM.attributes
                0x0000195c       0x36 ./obj/local/armeabi-v7a/h264_dec_lib.a(arm_doIntraPredNon4x4.rel.rvds.o)
 .ARM.attributes
                0x00001992       0x36 ./obj/local/armeabi-v7a/h264_dec_lib.a(arm_interpolateChroma.rel.rvds.o)
 .ARM.attributes
                0x000019c8       0x36 ./obj/local/armeabi-v7a/h264_dec_lib.a(arm_rep_mv_colz.rel.rvds.o)
 .ARM.attributes
                0x000019fe       0x36 ./obj/local/armeabi-v7a/h264_dec_lib.a(arm_sixtapHVInterpolHPelGrid.rel.rvds.o)
 .ARM.attributes
                0x00001a34       0x36 ./obj/local/armeabi-v7a/h264_dec_lib.a(arm_sixtapHorizInterpolQsamp.rel.rvds.o)
 .ARM.attributes
                0x00001a6a       0x36 ./obj/local/armeabi-v7a/h264_dec_lib.a(arm_sixtapVHInterpolHPelGrid.rel.rvds.o)
 .ARM.attributes
                0x00001aa0       0x36 ./obj/local/armeabi-v7a/h264_dec_lib.a(arm_sixtapVHInterpolQSamp.rel.rvds.o)
 .ARM.attributes
                0x00001ad6       0x36 ./obj/local/armeabi-v7a/h264_dec_lib.a(arm_sixtapVertInterpolQsamp.rel.rvds.o)
 .ARM.attributes
                0x00001b0c       0x36 ./obj/local/armeabi-v7a/h264_dec_lib.a(arm_sixtapfilt2dHV.rel.rvds.o)
 .ARM.attributes
                0x00001b42       0x36 ./obj/local/armeabi-v7a/h264_dec_lib.a(arm_sixtapfiltHoriz.rel.rvds.o)
 .ARM.attributes
                0x00001b78       0x36 ./obj/local/armeabi-v7a/h264_dec_lib.a(arm_sixtapfiltVert.rel.rvds.o)
 .ARM.attributes
                0x00001bae       0x36 ./obj/local/armeabi-v7a/h264_dec_lib.a(arm_Padding.rel.rvds.o)
 .ARM.attributes
                0x00001be4       0x36 ./obj/local/armeabi-v7a/h264_dec_lib.a(arm_default_weighted_Pred.rel.rvds.o)
 .ARM.attributes
                0x00001c1a       0x36 ./obj/local/armeabi-v7a/h264_dec_lib.a(arm_idct.rel.rvds.o)
 .ARM.attributes
                0x00001c50       0x36 ./obj/local/armeabi-v7a/h264_dec_lib.a(arm_intra4x4_mb.rel.rvds.o)
 .ARM.attributes
                0x00001c86       0x32 ./obj/local/armeabi-v7a/h264_dec_lib.a(format_conv_to_yuv422i.rel.rvds.o)
 .ARM.attributes
                0x00001cb8       0x44 ./obj/local/armeabi-v7a/h264_dec_lib.a(MotionCompensate.rel.rvds.o)
 .ARM.attributes
                0x00001cfc       0x44 ./obj/local/armeabi-v7a/h264_dec_lib.a(ParseSyntax.rel.rvds.o)
 .ARM.attributes
                0x00001d40       0x44 ./obj/local/armeabi-v7a/h264_dec_lib.a(decBitStream.rel.rvds.o)
 .ARM.attributes
                0x00001d84       0x44 ./obj/local/armeabi-v7a/h264_dec_lib.a(decComputBS.rel.rvds.o)
 .ARM.attributes
                0x00001dc8       0x44 ./obj/local/armeabi-v7a/h264_dec_lib.a(decComputeQp.rel.rvds.o)
 .ARM.attributes
                0x00001e0c       0x44 ./obj/local/armeabi-v7a/h264_dec_lib.a(decDeblocking.rel.rvds.o)
 .ARM.attributes
                0x00001e50       0x44 ./obj/local/armeabi-v7a/h264_dec_lib.a(decHiLevSyntax.rel.rvds.o)
 .ARM.attributes
                0x00001e94       0x44 ./obj/local/armeabi-v7a/h264_dec_lib.a(decMotionVector.rel.rvds.o)
 .ARM.attributes
                0x00001ed8       0x44 ./obj/local/armeabi-v7a/h264_dec_lib.a(decodeISlice.rel.rvds.o)
 .ARM.attributes
                0x00001f1c       0x44 ./obj/local/armeabi-v7a/h264_dec_lib.a(decodeIntraMB.rel.rvds.o)
 .ARM.attributes
                0x00001f60       0x44 ./obj/local/armeabi-v7a/h264_dec_lib.a(decodePSlice.rel.rvds.o)
 .ARM.attributes
                0x00001fa4       0x44 ./obj/local/armeabi-v7a/h264_dec_lib.a(decodeResidual.rel.rvds.o)
 .ARM.attributes
                0x00001fe8       0x44 ./obj/local/armeabi-v7a/h264_dec_lib.a(sei.rel.rvds.o)
 .ARM.attributes
                0x0000202c       0x44 ./obj/local/armeabi-v7a/h264_dec_lib.a(utils.rel.rvds.o)
 .ARM.attributes
                0x00002070       0x44 ./obj/local/armeabi-v7a/h264_dec_lib.a(vui.rel.rvds.o)
 .ARM.attributes
                0x000020b4       0x36 ./obj/local/armeabi-v7a/h264_dec_lib.a(arm_getMotionVectorPredictor.rel.rvds.o)
 .ARM.attributes
                0x000020ea       0x36 ./obj/local/armeabi-v7a/h264_dec_lib.a(arm_DeblkChroma.rel.rvds.o)
 .ARM.attributes
                0x00002120       0x36 ./obj/local/armeabi-v7a/h264_dec_lib.a(arm_DeblkLuma.rel.rvds.o)
 .ARM.attributes
                0x00002156       0x32 ./obj/local/armeabi-v7a/h264_dec_lib.a(arm_memset.rel.rvds.o)
 .ARM.attributes
                0x00002188       0x44 ./obj/local/armeabi-v7a/h264_dec_lib.a(ParsePSyntax.rel.rvds.o)
 .ARM.attributes
                0x000021cc       0x44 ./obj/local/armeabi-v7a/h264_dec_lib.a(decMbUtils.rel.rvds.o)
 .ARM.attributes
                0x00002210       0x44 ./obj/local/armeabi-v7a/h264_dec_lib.a(DecodeSyntax.rel.rvds.o)
 .ARM.attributes
                0x00002254       0x44 ./obj/local/armeabi-v7a/mpeg4_asp_dec_lib.a(decoder_api_main.o)
 .ARM.attributes
                0x00002298       0x44 ./obj/local/armeabi-v7a/mpeg4_asp_dec_lib.a(inv_ac_dc_pred.o)
 .ARM.attributes
                0x000022dc       0x44 ./obj/local/armeabi-v7a/mpeg4_asp_dec_lib.a(it_picbuf.o)
 .ARM.attributes
                0x00002320       0x44 ./obj/local/armeabi-v7a/mpeg4_asp_dec_lib.a(mv_decode.o)
 .ARM.attributes
                0x00002364       0x44 ./obj/local/armeabi-v7a/mpeg4_asp_dec_lib.a(save_restore_cntx.o)
 .ARM.attributes
                0x000023a8       0x44 ./obj/local/armeabi-v7a/mpeg4_asp_dec_lib.a(utils.o)
 .ARM.attributes
                0x000023ec       0x44 ./obj/local/armeabi-v7a/mpeg4_asp_dec_lib.a(videobitstream.o)
 .ARM.attributes
                0x00002430       0x36 ./obj/local/armeabi-v7a/mpeg4_asp_dec_lib.a(ApplyFilter_n_GetQuarterPelVal_cortexA8_neon.o)
 .ARM.attributes
                0x00002466       0x36 ./obj/local/armeabi-v7a/mpeg4_asp_dec_lib.a(interlace_mot_comp_notcoded_cortexA8_neon.o)
 .ARM.attributes
                0x0000249c       0x36 ./obj/local/armeabi-v7a/mpeg4_asp_dec_lib.a(mot_comp_cortexA8_neon.o)
 .ARM.attributes
                0x000024d2       0x36 ./obj/local/armeabi-v7a/mpeg4_asp_dec_lib.a(mot_comp_interlace_cortexA8_neon.o)
 .ARM.attributes
                0x00002508       0x38 ./obj/local/armeabi-v7a/mpeg4_asp_dec_lib.a(mv_decode_cortexA8_neon.o)
 .ARM.attributes
                0x00002540       0x36 ./obj/local/armeabi-v7a/mpeg4_asp_dec_lib.a(format_conv_to_yuv422i.o)
 .ARM.attributes
                0x00002576       0x44 ./obj/local/armeabi-v7a/mpeg4_asp_dec_lib.a(format_conv_to_422i.o)
 .ARM.attributes
                0x000025ba       0x44 ./obj/local/armeabi-v7a/mpeg4_asp_dec_lib.a(basebitstream.o)
 .ARM.attributes
                0x000025fe       0x44 ./obj/local/armeabi-v7a/mpeg4_asp_dec_lib.a(bitstream.o)
 .ARM.attributes
                0x00002642       0x44 ./obj/local/armeabi-v7a/mpeg4_asp_dec_lib.a(blockdecode.o)
 .ARM.attributes
                0x00002686       0x44 ./obj/local/armeabi-v7a/mpeg4_asp_dec_lib.a(decodebvop.o)
 .ARM.attributes
                0x000026ca       0x44 ./obj/local/armeabi-v7a/mpeg4_asp_dec_lib.a(decodeivop.o)
 .ARM.attributes
                0x0000270e       0x44 ./obj/local/armeabi-v7a/mpeg4_asp_dec_lib.a(decodepvop.o)
 .ARM.attributes
                0x00002752       0x44 ./obj/local/armeabi-v7a/mpeg4_asp_dec_lib.a(dequantizer.o)
 .ARM.attributes
                0x00002796       0x44 ./obj/local/armeabi-v7a/mpeg4_asp_dec_lib.a(global_error_hadler.o)
 .ARM.attributes
                0x000027da       0x42 ./obj/local/armeabi-v7a/mpeg4_asp_dec_lib.a(globals.o)
 .ARM.attributes
                0x0000281c       0x44 ./obj/local/armeabi-v7a/mpeg4_asp_dec_lib.a(idct.o)
 .ARM.attributes
                0x00002860       0x44 ./obj/local/armeabi-v7a/mpeg4_asp_dec_lib.a(interlace.o)
 .ARM.attributes
                0x000028a4       0x44 ./obj/local/armeabi-v7a/mpeg4_asp_dec_lib.a(motioncompensate.o)
 .ARM.attributes
                0x000028e8       0x44 ./obj/local/armeabi-v7a/mpeg4_asp_dec_lib.a(rvlc.o)
 .ARM.attributes
                0x0000292c       0x42 ./obj/local/armeabi-v7a/mpeg4_asp_dec_lib.a(rvlc_tables.o)
 .ARM.attributes
                0x0000296e       0x44 ./obj/local/armeabi-v7a/mpeg4_asp_dec_lib.a(vldecoder.o)
 .ARM.attributes
                0x000029b2       0x42 ./obj/local/armeabi-v7a/mpeg4_asp_dec_lib.a(vldecoder_tables.o)
 .ARM.attributes
                0x000029f4       0x36 ./obj/local/armeabi-v7a/mpeg4_asp_dec_lib.a(bitstream_cortexA8_neon.o)
 .ARM.attributes
                0x00002a2a       0x36 ./obj/local/armeabi-v7a/mpeg4_asp_dec_lib.a(dequant_cortexA8_neon.o)
 .ARM.attributes
                0x00002a60       0x36 ./obj/local/armeabi-v7a/mpeg4_asp_dec_lib.a(idct_cortexA8_neon.o)
 .ARM.attributes
                0x00002a96       0x38 ./obj/local/armeabi-v7a/mpeg4_asp_dec_lib.a(inv_acdc_pred_cortexA8.o)
 .ARM.attributes
                0x00002ace       0x36 ./obj/local/armeabi-v7a/mpeg4_asp_dec_lib.a(mc_AddBufferToBlkMatrix_funcs_cortexA8_neon.o)
 .ARM.attributes
                0x00002b04       0x36 ./obj/local/armeabi-v7a/mpeg4_asp_dec_lib.a(mc_interpolate_buf_cortexA8_neon.o)
 .ARM.attributes
                0x00002b3a       0x42 ./obj/local/armeabi-v7a/mpeg4_asp_dec_lib.a(vldecoder_tables_s2.o)
 .ARM.attributes
                0x00002b7c       0x44 ./obj/local/armeabi-v7a/sys_utils.a(it_mem.o)
 .ARM.attributes
                0x00002bc0       0x1d /home/n-brulez/dev/sdk/android-ndk-r7/toolchains/arm-linux-androideabi-4.4.3/prebuilt/linux-x86/bin/../lib/gcc/arm-linux-androideabi/4.4.3/libgcc.a(_udivsi3.o)
 .ARM.attributes
                0x00002bdd       0x1d /home/n-brulez/dev/sdk/android-ndk-r7/toolchains/arm-linux-androideabi-4.4.3/prebuilt/linux-x86/bin/../lib/gcc/arm-linux-androideabi/4.4.3/libgcc.a(_divsi3.o)
 .ARM.attributes
                0x00002bfa       0x1d /home/n-brulez/dev/sdk/android-ndk-r7/toolchains/arm-linux-androideabi-4.4.3/prebuilt/linux-x86/bin/../lib/gcc/arm-linux-androideabi/4.4.3/libgcc.a(_arm_addsubdf3.o)
 .ARM.attributes
                0x00002c17       0x1d /home/n-brulez/dev/sdk/android-ndk-r7/toolchains/arm-linux-androideabi-4.4.3/prebuilt/linux-x86/bin/../lib/gcc/arm-linux-androideabi/4.4.3/libgcc.a(_arm_muldivdf3.o)
 .ARM.attributes
                0x00002c34       0x1d /home/n-brulez/dev/sdk/android-ndk-r7/toolchains/arm-linux-androideabi-4.4.3/prebuilt/linux-x86/bin/../lib/gcc/arm-linux-androideabi/4.4.3/libgcc.a(_arm_cmpdf2.o)
 .ARM.attributes
                0x00002c51       0x1d /home/n-brulez/dev/sdk/android-ndk-r7/toolchains/arm-linux-androideabi-4.4.3/prebuilt/linux-x86/bin/../lib/gcc/arm-linux-androideabi/4.4.3/libgcc.a(_arm_fixdfsi.o)
 .ARM.attributes
                0x00002c6e       0x1d /home/n-brulez/dev/sdk/android-ndk-r7/toolchains/arm-linux-androideabi-4.4.3/prebuilt/linux-x86/bin/../lib/gcc/arm-linux-androideabi/4.4.3/libgcc.a(_arm_truncdfsf2.o)
 .ARM.attributes
                0x00002c8b       0x1d /home/n-brulez/dev/sdk/android-ndk-r7/toolchains/arm-linux-androideabi-4.4.3/prebuilt/linux-x86/bin/../lib/gcc/arm-linux-androideabi/4.4.3/libgcc.a(_arm_addsubsf3.o)
 .ARM.attributes
                0x00002ca8       0x1d /home/n-brulez/dev/sdk/android-ndk-r7/toolchains/arm-linux-androideabi-4.4.3/prebuilt/linux-x86/bin/../lib/gcc/arm-linux-androideabi/4.4.3/libgcc.a(_arm_muldivsf3.o)
 .ARM.attributes
                0x00002cc5       0x1d /home/n-brulez/dev/sdk/android-ndk-r7/toolchains/arm-linux-androideabi-4.4.3/prebuilt/linux-x86/bin/../lib/gcc/arm-linux-androideabi/4.4.3/libgcc.a(_arm_cmpsf2.o)
 .ARM.attributes
                0x00002ce2       0x1d /home/n-brulez/dev/sdk/android-ndk-r7/toolchains/arm-linux-androideabi-4.4.3/prebuilt/linux-x86/bin/../lib/gcc/arm-linux-androideabi/4.4.3/libgcc.a(_arm_fixunssfsi.o)
 .ARM.attributes
                0x00002cff       0x1d /home/n-brulez/dev/sdk/android-ndk-r7/toolchains/arm-linux-androideabi-4.4.3/prebuilt/linux-x86/bin/../lib/gcc/arm-linux-androideabi/4.4.3/libgcc.a(_aeabi_ldivmod.o)
 .ARM.attributes
                0x00002d1c       0x1d /home/n-brulez/dev/sdk/android-ndk-r7/toolchains/arm-linux-androideabi-4.4.3/prebuilt/linux-x86/bin/../lib/gcc/arm-linux-androideabi/4.4.3/libgcc.a(_aeabi_uldivmod.o)
 .ARM.attributes
                0x00002d39       0x1d /home/n-brulez/dev/sdk/android-ndk-r7/toolchains/arm-linux-androideabi-4.4.3/prebuilt/linux-x86/bin/../lib/gcc/arm-linux-androideabi/4.4.3/libgcc.a(_dvmd_lnx.o)
 .ARM.attributes
                0x00002d56       0x2b /home/n-brulez/dev/sdk/android-ndk-r7/toolchains/arm-linux-androideabi-4.4.3/prebuilt/linux-x86/bin/../lib/gcc/arm-linux-androideabi/4.4.3/libgcc.a(bpabi.o)
 .ARM.attributes
                0x00002d81       0x2b /home/n-brulez/dev/sdk/android-ndk-r7/toolchains/arm-linux-androideabi-4.4.3/prebuilt/linux-x86/bin/../lib/gcc/arm-linux-androideabi/4.4.3/libgcc.a(unwind-arm.o)
 .ARM.attributes
                0x00002dac       0x1d /home/n-brulez/dev/sdk/android-ndk-r7/toolchains/arm-linux-androideabi-4.4.3/prebuilt/linux-x86/bin/../lib/gcc/arm-linux-androideabi/4.4.3/libgcc.a(libunwind.o)
 .ARM.attributes
                0x00002dc9       0x2b /home/n-brulez/dev/sdk/android-ndk-r7/toolchains/arm-linux-androideabi-4.4.3/prebuilt/linux-x86/bin/../lib/gcc/arm-linux-androideabi/4.4.3/libgcc.a(pr-support.o)
 .ARM.attributes
                0x00002df4       0x2b /home/n-brulez/dev/sdk/android-ndk-r7/toolchains/arm-linux-androideabi-4.4.3/prebuilt/linux-x86/bin/../lib/gcc/arm-linux-androideabi/4.4.3/libgcc.a(_divdi3.o)
 .ARM.attributes
                0x00002e1f       0x2b /home/n-brulez/dev/sdk/android-ndk-r7/toolchains/arm-linux-androideabi-4.4.3/prebuilt/linux-x86/bin/../lib/gcc/arm-linux-androideabi/4.4.3/libgcc.a(_udivdi3.o)
 .ARM.attributes
                0x00002e4a       0x17 /home/n-brulez/dev/sdk/android-ndk-r7/platforms/android-14/arch-arm/usr/lib/crtend_so.o

.arm_vfe_header
                0x00000000      0x100
 .arm_vfe_header
                0x00000000        0x4 ./obj/local/armeabi-v7a/h264_dec_lib.a(decoder_api_main.rel.rvds.o)
 .arm_vfe_header
                0x00000004        0x4 ./obj/local/armeabi-v7a/h264_dec_lib.a(h264dec_ittiam_api_define.rel.rvds.o)
 .arm_vfe_header
                0x00000008        0x4 ./obj/local/armeabi-v7a/h264_dec_lib.a(cncl.rel.rvds.o)
 .arm_vfe_header
                0x0000000c        0x4 ./obj/local/armeabi-v7a/h264_dec_lib.a(bufapi_ittiam_ialg.rel.rvds.o)
 .arm_vfe_header
                0x00000010        0x4 ./obj/local/armeabi-v7a/h264_dec_lib.a(bufferAPI.rel.rvds.o)
 .arm_vfe_header
                0x00000014        0x4 ./obj/local/armeabi-v7a/h264_dec_lib.a(decInterface.rel.rvds.o)
 .arm_vfe_header
                0x00000018        0x4 ./obj/local/armeabi-v7a/h264_dec_lib.a(decPicDelimitProc.rel.rvds.o)
 .arm_vfe_header
                0x0000001c        0x4 ./obj/local/armeabi-v7a/h264_dec_lib.a(decodeSlice.rel.rvds.o)
 .arm_vfe_header
                0x00000020        0x4 ./obj/local/armeabi-v7a/h264_dec_lib.a(decodeUVLC.rel.rvds.o)
 .arm_vfe_header
                0x00000024        0x4 ./obj/local/armeabi-v7a/h264_dec_lib.a(dpbManager.rel.rvds.o)
 .arm_vfe_header
                0x00000028        0x4 ./obj/local/armeabi-v7a/h264_dec_lib.a(dpb_opt.rel.rvds.o)
 .arm_vfe_header
                0x0000002c        0x4 ./obj/local/armeabi-v7a/h264_dec_lib.a(errorhandler.rel.rvds.o)
 .arm_vfe_header
                0x00000030        0x4 ./obj/local/armeabi-v7a/h264_dec_lib.a(gaps_in_frm.rel.rvds.o)
 .arm_vfe_header
                0x00000034        0x4 ./obj/local/armeabi-v7a/h264_dec_lib.a(globals.rel.rvds.o)
 .arm_vfe_header
                0x00000038        0x4 ./obj/local/armeabi-v7a/h264_dec_lib.a(memRequest.rel.rvds.o)
 .arm_vfe_header
                0x0000003c        0x4 ./obj/local/armeabi-v7a/h264_dec_lib.a(memoryAPI.rel.rvds.o)
 .arm_vfe_header
                0x00000040        0x4 ./obj/local/armeabi-v7a/h264_dec_lib.a(nal.rel.rvds.o)
 .arm_vfe_header
                0x00000044        0x4 ./obj/local/armeabi-v7a/h264_dec_lib.a(tables.rel.rvds.o)
 .arm_vfe_header
                0x00000048        0x4 ./obj/local/armeabi-v7a/h264_dec_lib.a(format_conv_to_422i.rel.rvds.o)
 .arm_vfe_header
                0x0000004c        0x4 ./obj/local/armeabi-v7a/h264_dec_lib.a(arm_idct.rel.rvds.o)
 .arm_vfe_header
                0x00000050        0x4 ./obj/local/armeabi-v7a/h264_dec_lib.a(MotionCompensate.rel.rvds.o)
 .arm_vfe_header
                0x00000054        0x4 ./obj/local/armeabi-v7a/h264_dec_lib.a(ParseSyntax.rel.rvds.o)
 .arm_vfe_header
                0x00000058        0x4 ./obj/local/armeabi-v7a/h264_dec_lib.a(decBitStream.rel.rvds.o)
 .arm_vfe_header
                0x0000005c        0x4 ./obj/local/armeabi-v7a/h264_dec_lib.a(decComputBS.rel.rvds.o)
 .arm_vfe_header
                0x00000060        0x4 ./obj/local/armeabi-v7a/h264_dec_lib.a(decComputeQp.rel.rvds.o)
 .arm_vfe_header
                0x00000064        0x4 ./obj/local/armeabi-v7a/h264_dec_lib.a(decDeblocking.rel.rvds.o)
 .arm_vfe_header
                0x00000068        0x4 ./obj/local/armeabi-v7a/h264_dec_lib.a(decHiLevSyntax.rel.rvds.o)
 .arm_vfe_header
                0x0000006c        0x4 ./obj/local/armeabi-v7a/h264_dec_lib.a(decMotionVector.rel.rvds.o)
 .arm_vfe_header
                0x00000070        0x4 ./obj/local/armeabi-v7a/h264_dec_lib.a(decodeISlice.rel.rvds.o)
 .arm_vfe_header
                0x00000074        0x4 ./obj/local/armeabi-v7a/h264_dec_lib.a(decodeIntraMB.rel.rvds.o)
 .arm_vfe_header
                0x00000078        0x4 ./obj/local/armeabi-v7a/h264_dec_lib.a(decodePSlice.rel.rvds.o)
 .arm_vfe_header
                0x0000007c        0x4 ./obj/local/armeabi-v7a/h264_dec_lib.a(decodeResidual.rel.rvds.o)
 .arm_vfe_header
                0x00000080        0x4 ./obj/local/armeabi-v7a/h264_dec_lib.a(sei.rel.rvds.o)
 .arm_vfe_header
                0x00000084        0x4 ./obj/local/armeabi-v7a/h264_dec_lib.a(utils.rel.rvds.o)
 .arm_vfe_header
                0x00000088        0x4 ./obj/local/armeabi-v7a/h264_dec_lib.a(vui.rel.rvds.o)
 .arm_vfe_header
                0x0000008c        0x4 ./obj/local/armeabi-v7a/h264_dec_lib.a(ParsePSyntax.rel.rvds.o)
 .arm_vfe_header
                0x00000090        0x4 ./obj/local/armeabi-v7a/h264_dec_lib.a(decMbUtils.rel.rvds.o)
 .arm_vfe_header
                0x00000094        0x4 ./obj/local/armeabi-v7a/h264_dec_lib.a(DecodeSyntax.rel.rvds.o)
 .arm_vfe_header
                0x00000098        0x4 ./obj/local/armeabi-v7a/mpeg4_asp_dec_lib.a(decoder_api_main.o)
 .arm_vfe_header
                0x0000009c        0x4 ./obj/local/armeabi-v7a/mpeg4_asp_dec_lib.a(inv_ac_dc_pred.o)
 .arm_vfe_header
                0x000000a0        0x4 ./obj/local/armeabi-v7a/mpeg4_asp_dec_lib.a(it_picbuf.o)
 .arm_vfe_header
                0x000000a4        0x4 ./obj/local/armeabi-v7a/mpeg4_asp_dec_lib.a(mv_decode.o)
 .arm_vfe_header
                0x000000a8        0x4 ./obj/local/armeabi-v7a/mpeg4_asp_dec_lib.a(save_restore_cntx.o)
 .arm_vfe_header
                0x000000ac        0x4 ./obj/local/armeabi-v7a/mpeg4_asp_dec_lib.a(utils.o)
 .arm_vfe_header
                0x000000b0        0x4 ./obj/local/armeabi-v7a/mpeg4_asp_dec_lib.a(videobitstream.o)
 .arm_vfe_header
                0x000000b4        0x4 ./obj/local/armeabi-v7a/mpeg4_asp_dec_lib.a(format_conv_to_422i.o)
 .arm_vfe_header
                0x000000b8        0x4 ./obj/local/armeabi-v7a/mpeg4_asp_dec_lib.a(basebitstream.o)
 .arm_vfe_header
                0x000000bc        0x4 ./obj/local/armeabi-v7a/mpeg4_asp_dec_lib.a(bitstream.o)
 .arm_vfe_header
                0x000000c0        0x4 ./obj/local/armeabi-v7a/mpeg4_asp_dec_lib.a(blockdecode.o)
 .arm_vfe_header
                0x000000c4        0x4 ./obj/local/armeabi-v7a/mpeg4_asp_dec_lib.a(decodebvop.o)
 .arm_vfe_header
                0x000000c8        0x4 ./obj/local/armeabi-v7a/mpeg4_asp_dec_lib.a(decodeivop.o)
 .arm_vfe_header
                0x000000cc        0x4 ./obj/local/armeabi-v7a/mpeg4_asp_dec_lib.a(decodepvop.o)
 .arm_vfe_header
                0x000000d0        0x4 ./obj/local/armeabi-v7a/mpeg4_asp_dec_lib.a(dequantizer.o)
 .arm_vfe_header
                0x000000d4        0x4 ./obj/local/armeabi-v7a/mpeg4_asp_dec_lib.a(global_error_hadler.o)
 .arm_vfe_header
                0x000000d8        0x4 ./obj/local/armeabi-v7a/mpeg4_asp_dec_lib.a(globals.o)
 .arm_vfe_header
                0x000000dc        0x4 ./obj/local/armeabi-v7a/mpeg4_asp_dec_lib.a(idct.o)
 .arm_vfe_header
                0x000000e0        0x4 ./obj/local/armeabi-v7a/mpeg4_asp_dec_lib.a(interlace.o)
 .arm_vfe_header
                0x000000e4        0x4 ./obj/local/armeabi-v7a/mpeg4_asp_dec_lib.a(motioncompensate.o)
 .arm_vfe_header
                0x000000e8        0x4 ./obj/local/armeabi-v7a/mpeg4_asp_dec_lib.a(rvlc.o)
 .arm_vfe_header
                0x000000ec        0x4 ./obj/local/armeabi-v7a/mpeg4_asp_dec_lib.a(rvlc_tables.o)
 .arm_vfe_header
                0x000000f0        0x4 ./obj/local/armeabi-v7a/mpeg4_asp_dec_lib.a(vldecoder.o)
 .arm_vfe_header
                0x000000f4        0x4 ./obj/local/armeabi-v7a/mpeg4_asp_dec_lib.a(vldecoder_tables.o)
 .arm_vfe_header
                0x000000f8        0x4 ./obj/local/armeabi-v7a/mpeg4_asp_dec_lib.a(vldecoder_tables_s2.o)
 .arm_vfe_header
                0x000000fc        0x4 ./obj/local/armeabi-v7a/sys_utils.a(it_mem.o)

.comment        0x00000000     0xd92c
 *(.comment)
 .comment       0x00000000       0x11 ./obj/local/armeabi-v7a/objs/adfreeflight/app.o
                                 0x12 (size before relaxing)
 .comment       0x00000000       0x12 ./obj/local/armeabi-v7a/objs/adfreeflight/video_stage_io_file.o
 .comment       0x00000000       0x12 ./obj/local/armeabi-v7a/objs/adfreeflight/hardware_capabilites.o
 .comment       0x00000000       0x12 ./obj/local/armeabi-v7a/objs/adfreeflight/Controller/ardrone_controller.o
 .comment       0x00000000       0x12 ./obj/local/armeabi-v7a/objs/adfreeflight/ControlData.o
 .comment       0x00000000       0x12 ./obj/local/armeabi-v7a/objs/adfreeflight/Callbacks/drone_proxy_callbacks.o
 .comment       0x00000000       0x12 ./obj/local/armeabi-v7a/objs/adfreeflight/Callbacks/java_callbacks.o
 .comment       0x00000000       0x12 ./obj/local/armeabi-v7a/objs/adfreeflight/Plf/plf.o
 .comment       0x00000000       0x12 ./obj/local/armeabi-v7a/objs/adfreeflight/Stubs/drone_stub.o
 .comment       0x00000000       0x12 ./obj/local/armeabi-v7a/objs/adfreeflight/Stubs/drone_config_stub.o
 .comment       0x00000000       0x12 ./obj/local/armeabi-v7a/objs/adfreeflight/Stubs/ftp_client_stub.o
 .comment       0x00000000       0x12 ./obj/local/armeabi-v7a/objs/adfreeflight/Stubs/plf_file_stub.o
 .comment       0x00000000       0x12 ./obj/local/armeabi-v7a/objs/adfreeflight/Stubs/transcoding_service_stub.o
 .comment       0x00000000       0x12 ./obj/local/armeabi-v7a/objs/adfreeflight/Stubs/gl_bg_video_sprite_stub.o
 .comment       0x00000000       0x12 ./obj/local/armeabi-v7a/objs/adfreeflight/NavData/nav_data.o
 .comment       0x00000000       0x12 ./obj/local/armeabi-v7a/objs/adfreeflight/Video/video_stage_renderer.o
 .comment       0x00000000       0x12 ./obj/local/armeabi-v7a/objs/adfreeflight/Video/frame_rate.o
 .comment       0x00000000       0x12 ./obj/local/armeabi-v7a/objs/adfreeflight/Controller/virtual_gamepad.o
 .comment       0x00000000       0x12 ./obj/local/armeabi-v7a/objs/adfreeflight/Video/opengl_stage.o
 .comment       0x00000000       0x12 ./obj/local/armeabi-v7a/objs/adfreeflight/Video/opengl_shader.o
 .comment       0x00000000       0x12 ./obj/local/armeabi-v7a/objs/adfreeflight/Video/opengl_texture.o
 .comment       0x00000000       0x12 ./obj/local/armeabi-v7a/libpc_ardrone.a(ardrone_version.o)
 .comment       0x00000000       0x12 ./obj/local/armeabi-v7a/libpc_ardrone.a(ardrone_ftp.o)
 .comment       0x00000000       0x12 ./obj/local/armeabi-v7a/libpc_ardrone.a(ardrone_video_atoms.o)
 .comment       0x00000000       0x12 ./obj/local/armeabi-v7a/libpc_ardrone.a(ardrone_video_encapsuler.o)
 .comment       0x00000000       0x12 ./obj/local/armeabi-v7a/libpc_ardrone.a(video_stage_encoded_recorder.o)
 .comment       0x00000000       0x12 ./obj/local/armeabi-v7a/libpc_ardrone.a(video_stage_latency_estimation.o)
 .comment       0x00000000       0x12 ./obj/local/armeabi-v7a/libpc_ardrone.a(video_recorder_pipeline.o)
 .comment       0x00000000       0x12 ./obj/local/armeabi-v7a/libpc_ardrone.a(video_stage.o)
 .comment       0x00000000       0x12 ./obj/local/armeabi-v7a/libpc_ardrone.a(AR_Ftw.o)
 .comment       0x00000000       0x12 ./obj/local/armeabi-v7a/libpc_ardrone.a(ardrone_at_mutex.o)
 .comment       0x00000000       0x12 ./obj/local/armeabi-v7a/libpc_ardrone.a(academy.o)
 .comment       0x00000000       0x12 ./obj/local/armeabi-v7a/libpc_ardrone.a(academy_upload.o)
 .comment       0x00000000       0x12 ./obj/local/armeabi-v7a/libpc_ardrone.a(academy_stage_recorder.o)
 .comment       0x00000000       0x12 ./obj/local/armeabi-v7a/libpc_ardrone.a(ardrone_navdata_file.o)
 .comment       0x00000000       0x12 ./obj/local/armeabi-v7a/libpc_ardrone.a(ardrone_general_navdata.o)
 .comment       0x00000000       0x12 ./obj/local/armeabi-v7a/libpc_ardrone.a(ardrone_academy_navdata.o)
 .comment       0x00000000       0x12 ./obj/local/armeabi-v7a/libpc_ardrone.a(ardrone_input.o)
 .comment       0x00000000       0x12 ./obj/local/armeabi-v7a/libpc_ardrone.a(ardrone_tool_configuration.o)
 .comment       0x00000000       0x12 ./obj/local/armeabi-v7a/libpc_ardrone.a(ardrone_tool.o)
 .comment       0x00000000       0x12 ./obj/local/armeabi-v7a/libpc_ardrone.a(config_wifi.o)
 .comment       0x00000000       0x12 ./obj/local/armeabi-v7a/libpc_ardrone.a(video_com_stage.o)
 .comment       0x00000000       0x12 ./obj/local/armeabi-v7a/libpc_ardrone.a(video_navdata_handler.o)
 .comment       0x00000000       0x12 ./obj/local/armeabi-v7a/libpc_ardrone.a(ardrone_control.o)
 .comment       0x00000000       0x12 ./obj/local/armeabi-v7a/libpc_ardrone.a(ardrone_navdata_control.o)
 .comment       0x00000000       0x12 ./obj/local/armeabi-v7a/libpc_ardrone.a(ardrone_navdata_client.o)
 .comment       0x00000000       0x12 ./obj/local/armeabi-v7a/libpc_ardrone.a(iniparser.o)
 .comment       0x00000000       0x12 ./obj/local/armeabi-v7a/libpc_ardrone.a(dictionary.o)
 .comment       0x00000000       0x12 ./obj/local/armeabi-v7a/libpc_ardrone.a(navdata.o)
 .comment       0x00000000       0x12 ./obj/local/armeabi-v7a/libpc_ardrone.a(config_keys.o)
 .comment       0x00000000       0x12 ./obj/local/armeabi-v7a/libpc_ardrone.a(ardrone_time.o)
 .comment       0x00000000       0x12 ./obj/local/armeabi-v7a/libpc_ardrone.a(ardrone_date.o)
 .comment       0x00000000       0x12 ./obj/local/armeabi-v7a/libpc_ardrone.a(ardrone_gen_ids.o)
 .comment       0x00000000       0x12 ./obj/local/armeabi-v7a/libpc_ardrone.a(video_stage_tcp.o)
 .comment       0x00000000       0x12 ./obj/local/armeabi-v7a/libpc_ardrone.a(video_stage_merge_slices.o)
 .comment       0x00000000       0x12 ./obj/local/armeabi-v7a/libpc_ardrone.a(video_stage_decoder.o)
 .comment       0x00000000       0x12 ./obj/local/armeabi-v7a/libpc_ardrone.a(academy_download.o)
 .comment       0x00000000       0x12 ./obj/local/armeabi-v7a/libpc_ardrone.a(ardrone_control_configuration.o)
 .comment       0x00000000       0x12 ./obj/local/armeabi-v7a/libpc_ardrone.a(ardrone_control_ack.o)
 .comment       0x00000000       0x12 ./obj/local/armeabi-v7a/libpc_ardrone.a(ardrone_crc_32.o)
 .comment       0x00000000       0x12 ./obj/local/armeabi-v7a/libpc_ardrone.a(video_encapsulation.o)
 .comment       0x00000000       0x12 ./obj/local/armeabi-v7a/libpc_ardrone.a(video_stage_ffmpeg_decoder.o)
 .comment       0x00000000       0x12 ./obj/local/armeabi-v7a/libpc_ardrone.a(video_stage_ittiam_decoder.o)
 .comment       0x00000000       0x12 ./obj/local/armeabi-v7a/libvlib.a(vlib_stage_decode.o)
 .comment       0x00000000       0x12 ./obj/local/armeabi-v7a/libvlib.a(video_codec.o)
 .comment       0x00000000       0x12 ./obj/local/armeabi-v7a/libvlib.a(video_controller.o)
 .comment       0x00000000       0x12 ./obj/local/armeabi-v7a/libvlib.a(video_packetizer.o)
 .comment       0x00000000       0x12 ./obj/local/armeabi-v7a/libvlib.a(video_quantizer.o)
 .comment       0x00000000       0x12 ./obj/local/armeabi-v7a/libvlib.a(p263_codec.o)
 .comment       0x00000000       0x12 ./obj/local/armeabi-v7a/libvlib.a(p263_huffman.o)
 .comment       0x00000000       0x12 ./obj/local/armeabi-v7a/libvlib.a(p263_mb_layer.o)
 .comment       0x00000000       0x12 ./obj/local/armeabi-v7a/libvlib.a(p263_gob_layer.o)
 .comment       0x00000000       0x12 ./obj/local/armeabi-v7a/libvlib.a(p263_picture_layer.o)
 .comment       0x00000000       0x12 ./obj/local/armeabi-v7a/libvlib.a(p264_codec.o)
 .comment       0x00000000       0x12 ./obj/local/armeabi-v7a/libvlib.a(p264_gob_layer.o)
 .comment       0x00000000       0x12 ./obj/local/armeabi-v7a/libvlib.a(p264_mb_layer.o)
 .comment       0x00000000       0x12 ./obj/local/armeabi-v7a/libvlib.a(p264_picture_layer.o)
 .comment       0x00000000       0x12 ./obj/local/armeabi-v7a/libvlib.a(video_p264.o)
 .comment       0x00000000       0x12 ./obj/local/armeabi-v7a/libvlib.a(uvlc_codec.o)
 .comment       0x00000000       0x12 ./obj/local/armeabi-v7a/libvlib.a(uvlc_gob_layer.o)
 .comment       0x00000000       0x12 ./obj/local/armeabi-v7a/libvlib.a(uvlc_mb_layer.o)
 .comment       0x00000000       0x12 ./obj/local/armeabi-v7a/libvlib.a(uvlc_picture_layer.o)
 .comment       0x00000000       0x12 ./obj/local/armeabi-v7a/libvlib.a(video_utils.o)
 .comment       0x00000000       0x12 ./obj/local/armeabi-v7a/libvlib.a(video_mem32.o)
 .comment       0x00000000       0x12 ./obj/local/armeabi-v7a/libvlib.a(video_dct.o)
 .comment       0x00000000       0x12 ./obj/local/armeabi-v7a/libvlib.a(video_huffman.o)
 .comment       0x00000000       0x12 ./obj/local/armeabi-v7a/libvlib.a(video_macroblock.o)
 .comment       0x00000000       0x12 ./obj/local/armeabi-v7a/libvlib.a(video_picture.o)
 .comment       0x00000000       0x12 ./obj/local/armeabi-v7a/libvlib.a(p264_zigzag.o)
 .comment       0x00000000       0x12 ./obj/local/armeabi-v7a/libvlib.a(p264_transform.o)
 .comment       0x00000000       0x12 ./obj/local/armeabi-v7a/libvlib.a(p264_Qp.o)
 .comment       0x00000000       0x12 ./obj/local/armeabi-v7a/libvlib.a(p264_intra_pred.o)
 .comment       0x00000000       0x12 ./obj/local/armeabi-v7a/libvlib.a(p264_inter_mc.o)
 .comment       0x00000000       0x12 ./obj/local/armeabi-v7a/libvlib.a(p264_merge.o)
 .comment       0x00000000       0x12 ./obj/local/armeabi-v7a/libvlib.a(p264.o)
 .comment       0x00000000       0x12 ./obj/local/armeabi-v7a/libvlib.a(uvlc.o)
 .comment       0x00000000       0x12 ./obj/local/armeabi-v7a/libsdk.a(vp_os_malloc.o)
 .comment       0x00000000       0x12 ./obj/local/armeabi-v7a/libsdk.a(vp_api.o)
 .comment       0x00000000       0x12 ./obj/local/armeabi-v7a/libsdk.a(vp_api_supervisor.o)
 .comment       0x00000000       0x12 ./obj/local/armeabi-v7a/libsdk.a(vp_api_thread_helper.o)
 .comment       0x00000000       0x12 ./obj/local/armeabi-v7a/libsdk.a(ATcodec_api.o)
 .comment       0x00000000       0x12 ./obj/local/armeabi-v7a/libsdk.a(vp_com.o)
 .comment       0x00000000       0x12 ./obj/local/armeabi-v7a/libsdk.a(vp_com_error.o)
 .comment       0x00000000       0x12 ./obj/local/armeabi-v7a/libsdk.a(vp_os_signal.o)
 .comment       0x00000000       0x12 ./obj/local/armeabi-v7a/libsdk.a(vp_os_delay.o)
 .comment       0x00000000       0x12 ./obj/local/armeabi-v7a/libsdk.a(vp_os_thread.o)
 .comment       0x00000000       0x12 ./obj/local/armeabi-v7a/libsdk.a(vp_com_wifi.o)
 .comment       0x00000000       0x12 ./obj/local/armeabi-v7a/libsdk.a(vp_com_socket.o)
 .comment       0x00000000       0x12 ./obj/local/armeabi-v7a/libsdk.a(vp_com_socket_utils.o)
 .comment       0x00000000       0x12 ./obj/local/armeabi-v7a/libsdk.a(vp_com_config_itf.o)
 .comment       0x00000000       0x12 ./obj/local/armeabi-v7a/libsdk.a(vp_os_error_handling.o)
 .comment       0x00000000       0x12 ./obj/local/armeabi-v7a/libsdk.a(ATcodec_Memory.o)
 .comment       0x00000000       0x12 ./obj/local/armeabi-v7a/libsdk.a(ATcodec_Buffer.o)
 .comment       0x00000000       0x12 ./obj/local/armeabi-v7a/libsdk.a(ATcodec.o)
 .comment       0x00000000       0x12 ./obj/local/armeabi-v7a/libsdk.a(ATcodec_Tree.o)
 .comment       0x00000011      0x24a ./obj/local/armeabi-v7a/h264_dec_lib.a(decoder_api_main.rel.rvds.o)
 .comment       0x0000025b      0x25c ./obj/local/armeabi-v7a/h264_dec_lib.a(h264dec_ittiam_api_define.rel.rvds.o)
 .comment       0x000004b7      0x194 ./obj/local/armeabi-v7a/h264_dec_lib.a(cncl.rel.rvds.o)
 .comment       0x0000064b      0x19a ./obj/local/armeabi-v7a/h264_dec_lib.a(bufapi_ittiam_ialg.rel.rvds.o)
 .comment       0x000007e5      0x188 ./obj/local/armeabi-v7a/h264_dec_lib.a(bufferAPI.rel.rvds.o)
 .comment       0x0000096d      0x242 ./obj/local/armeabi-v7a/h264_dec_lib.a(decInterface.rel.rvds.o)
 .comment       0x00000baf      0x24c ./obj/local/armeabi-v7a/h264_dec_lib.a(decPicDelimitProc.rel.rvds.o)
 .comment       0x00000dfb      0x240 ./obj/local/armeabi-v7a/h264_dec_lib.a(decodeSlice.rel.rvds.o)
 .comment       0x0000103b      0x23e ./obj/local/armeabi-v7a/h264_dec_lib.a(decodeUVLC.rel.rvds.o)
 .comment       0x00001279      0x23e ./obj/local/armeabi-v7a/h264_dec_lib.a(dpbManager.rel.rvds.o)
 .comment       0x000014b7      0x238 ./obj/local/armeabi-v7a/h264_dec_lib.a(dpb_opt.rel.rvds.o)
 .comment       0x000016ef      0x242 ./obj/local/armeabi-v7a/h264_dec_lib.a(errorhandler.rel.rvds.o)
 .comment       0x00001931      0x240 ./obj/local/armeabi-v7a/h264_dec_lib.a(gaps_in_frm.rel.rvds.o)
 .comment       0x00001b71      0x238 ./obj/local/armeabi-v7a/h264_dec_lib.a(globals.rel.rvds.o)
 .comment       0x00001da9      0x23e ./obj/local/armeabi-v7a/h264_dec_lib.a(memRequest.rel.rvds.o)
 .comment       0x00001fe7      0x23c ./obj/local/armeabi-v7a/h264_dec_lib.a(memoryAPI.rel.rvds.o)
 .comment       0x00002223      0x230 ./obj/local/armeabi-v7a/h264_dec_lib.a(nal.rel.rvds.o)
 .comment       0x00002453      0x236 ./obj/local/armeabi-v7a/h264_dec_lib.a(tables.rel.rvds.o)
 .comment       0x00002689      0x250 ./obj/local/armeabi-v7a/h264_dec_lib.a(format_conv_to_422i.rel.rvds.o)
 .comment       0x000028d9       0xa0 ./obj/local/armeabi-v7a/h264_dec_lib.a(arm_computeBS.rel.rvds.o)
 .comment       0x00002979       0x9c ./obj/local/armeabi-v7a/h264_dec_lib.a(arm_copyRef.rel.rvds.o)
 .comment       0x00002a15       0xb0 ./obj/local/armeabi-v7a/h264_dec_lib.a(arm_doIntraPredNon4x4.rel.rvds.o)
 .comment       0x00002ac5       0xb0 ./obj/local/armeabi-v7a/h264_dec_lib.a(arm_interpolateChroma.rel.rvds.o)
 .comment       0x00002b75       0xa4 ./obj/local/armeabi-v7a/h264_dec_lib.a(arm_rep_mv_colz.rel.rvds.o)
 .comment       0x00002c19       0xbc ./obj/local/armeabi-v7a/h264_dec_lib.a(arm_sixtapHVInterpolHPelGrid.rel.rvds.o)
 .comment       0x00002cd5       0xbc ./obj/local/armeabi-v7a/h264_dec_lib.a(arm_sixtapHorizInterpolQsamp.rel.rvds.o)
 .comment       0x00002d91       0xbc ./obj/local/armeabi-v7a/h264_dec_lib.a(arm_sixtapVHInterpolHPelGrid.rel.rvds.o)
 .comment       0x00002e4d       0xb8 ./obj/local/armeabi-v7a/h264_dec_lib.a(arm_sixtapVHInterpolQSamp.rel.rvds.o)
 .comment       0x00002f05       0xbc ./obj/local/armeabi-v7a/h264_dec_lib.a(arm_sixtapVertInterpolQsamp.rel.rvds.o)
 .comment       0x00002fc1       0xa8 ./obj/local/armeabi-v7a/h264_dec_lib.a(arm_sixtapfilt2dHV.rel.rvds.o)
 .comment       0x00003069       0xac ./obj/local/armeabi-v7a/h264_dec_lib.a(arm_sixtapfiltHoriz.rel.rvds.o)
 .comment       0x00003115       0xa8 ./obj/local/armeabi-v7a/h264_dec_lib.a(arm_sixtapfiltVert.rel.rvds.o)
 .comment       0x000031bd       0x9c ./obj/local/armeabi-v7a/h264_dec_lib.a(arm_Padding.rel.rvds.o)
 .comment       0x00003259       0xb8 ./obj/local/armeabi-v7a/h264_dec_lib.a(arm_default_weighted_Pred.rel.rvds.o)
 .comment       0x00003311       0x94 ./obj/local/armeabi-v7a/h264_dec_lib.a(arm_idct.rel.rvds.o)
 .comment       0x000033a5       0xa4 ./obj/local/armeabi-v7a/h264_dec_lib.a(arm_intra4x4_mb.rel.rvds.o)
 .comment       0x00003449       0xb0 ./obj/local/armeabi-v7a/h264_dec_lib.a(format_conv_to_yuv422i.rel.rvds.o)
 .comment       0x000034f9      0x24a ./obj/local/armeabi-v7a/h264_dec_lib.a(MotionCompensate.rel.rvds.o)
 .comment       0x00003743      0x240 ./obj/local/armeabi-v7a/h264_dec_lib.a(ParseSyntax.rel.rvds.o)
 .comment       0x00003983      0x242 ./obj/local/armeabi-v7a/h264_dec_lib.a(decBitStream.rel.rvds.o)
 .comment       0x00003bc5      0x240 ./obj/local/armeabi-v7a/h264_dec_lib.a(decComputBS.rel.rvds.o)
 .comment       0x00003e05      0x242 ./obj/local/armeabi-v7a/h264_dec_lib.a(decComputeQp.rel.rvds.o)
 .comment       0x00004047      0x244 ./obj/local/armeabi-v7a/h264_dec_lib.a(decDeblocking.rel.rvds.o)
 .comment       0x0000428b      0x246 ./obj/local/armeabi-v7a/h264_dec_lib.a(decHiLevSyntax.rel.rvds.o)
 .comment       0x000044d1      0x248 ./obj/local/armeabi-v7a/h264_dec_lib.a(decMotionVector.rel.rvds.o)
 .comment       0x00004719      0x242 ./obj/local/armeabi-v7a/h264_dec_lib.a(decodeISlice.rel.rvds.o)
 .comment       0x0000495b      0x244 ./obj/local/armeabi-v7a/h264_dec_lib.a(decodeIntraMB.rel.rvds.o)
 .comment       0x00004b9f      0x242 ./obj/local/armeabi-v7a/h264_dec_lib.a(decodePSlice.rel.rvds.o)
 .comment       0x00004de1      0x246 ./obj/local/armeabi-v7a/h264_dec_lib.a(decodeResidual.rel.rvds.o)
 .comment       0x00005027      0x230 ./obj/local/armeabi-v7a/h264_dec_lib.a(sei.rel.rvds.o)
 .comment       0x00005257      0x234 ./obj/local/armeabi-v7a/h264_dec_lib.a(utils.rel.rvds.o)
 .comment       0x0000548b      0x230 ./obj/local/armeabi-v7a/h264_dec_lib.a(vui.rel.rvds.o)
 .comment       0x000056bb       0xbc ./obj/local/armeabi-v7a/h264_dec_lib.a(arm_getMotionVectorPredictor.rel.rvds.o)
 .comment       0x00005777       0xa4 ./obj/local/armeabi-v7a/h264_dec_lib.a(arm_DeblkChroma.rel.rvds.o)
 .comment       0x0000581b       0xa0 ./obj/local/armeabi-v7a/h264_dec_lib.a(arm_DeblkLuma.rel.rvds.o)
 .comment       0x000058bb       0x98 ./obj/local/armeabi-v7a/h264_dec_lib.a(arm_memset.rel.rvds.o)
 .comment       0x00005953      0x242 ./obj/local/armeabi-v7a/h264_dec_lib.a(ParsePSyntax.rel.rvds.o)
 .comment       0x00005b95      0x23e ./obj/local/armeabi-v7a/h264_dec_lib.a(decMbUtils.rel.rvds.o)
 .comment       0x00005dd3      0x242 ./obj/local/armeabi-v7a/h264_dec_lib.a(DecodeSyntax.rel.rvds.o)
 .comment       0x00006015      0x42b ./obj/local/armeabi-v7a/mpeg4_asp_dec_lib.a(decoder_api_main.o)
 .comment       0x00006440      0x427 ./obj/local/armeabi-v7a/mpeg4_asp_dec_lib.a(inv_ac_dc_pred.o)
 .comment       0x00006867      0x41d ./obj/local/armeabi-v7a/mpeg4_asp_dec_lib.a(it_picbuf.o)
 .comment       0x00006c84      0x41d ./obj/local/armeabi-v7a/mpeg4_asp_dec_lib.a(mv_decode.o)
 .comment       0x000070a1      0x42d ./obj/local/armeabi-v7a/mpeg4_asp_dec_lib.a(save_restore_cntx.o)
 .comment       0x000074ce      0x415 ./obj/local/armeabi-v7a/mpeg4_asp_dec_lib.a(utils.o)
 .comment       0x000078e3      0x427 ./obj/local/armeabi-v7a/mpeg4_asp_dec_lib.a(videobitstream.o)
 .comment       0x00007d0a      0x138 ./obj/local/armeabi-v7a/mpeg4_asp_dec_lib.a(ApplyFilter_n_GetQuarterPelVal_cortexA8_neon.o)
 .comment       0x00007e42      0x138 ./obj/local/armeabi-v7a/mpeg4_asp_dec_lib.a(interlace_mot_comp_notcoded_cortexA8_neon.o)
 .comment       0x00007f7a      0x138 ./obj/local/armeabi-v7a/mpeg4_asp_dec_lib.a(mot_comp_cortexA8_neon.o)
 .comment       0x000080b2      0x138 ./obj/local/armeabi-v7a/mpeg4_asp_dec_lib.a(mot_comp_interlace_cortexA8_neon.o)
 .comment       0x000081ea      0x138 ./obj/local/armeabi-v7a/mpeg4_asp_dec_lib.a(mv_decode_cortexA8_neon.o)
 .comment       0x00008322      0x138 ./obj/local/armeabi-v7a/mpeg4_asp_dec_lib.a(format_conv_to_yuv422i.o)
 .comment       0x0000845a      0x431 ./obj/local/armeabi-v7a/mpeg4_asp_dec_lib.a(format_conv_to_422i.o)
 .comment       0x0000888b      0x425 ./obj/local/armeabi-v7a/mpeg4_asp_dec_lib.a(basebitstream.o)
 .comment       0x00008cb0      0x41d ./obj/local/armeabi-v7a/mpeg4_asp_dec_lib.a(bitstream.o)
 .comment       0x000090cd      0x421 ./obj/local/armeabi-v7a/mpeg4_asp_dec_lib.a(blockdecode.o)
 .comment       0x000094ee      0x41f ./obj/local/armeabi-v7a/mpeg4_asp_dec_lib.a(decodebvop.o)
 .comment       0x0000990d      0x41f ./obj/local/armeabi-v7a/mpeg4_asp_dec_lib.a(decodeivop.o)
 .comment       0x00009d2c      0x41f ./obj/local/armeabi-v7a/mpeg4_asp_dec_lib.a(decodepvop.o)
 .comment       0x0000a14b      0x421 ./obj/local/armeabi-v7a/mpeg4_asp_dec_lib.a(dequantizer.o)
 .comment       0x0000a56c      0x431 ./obj/local/armeabi-v7a/mpeg4_asp_dec_lib.a(global_error_hadler.o)
 .comment       0x0000a99d      0x419 ./obj/local/armeabi-v7a/mpeg4_asp_dec_lib.a(globals.o)
 .comment       0x0000adb6      0x413 ./obj/local/armeabi-v7a/mpeg4_asp_dec_lib.a(idct.o)
 .comment       0x0000b1c9      0x41d ./obj/local/armeabi-v7a/mpeg4_asp_dec_lib.a(interlace.o)
 .comment       0x0000b5e6      0x42b ./obj/local/armeabi-v7a/mpeg4_asp_dec_lib.a(motioncompensate.o)
 .comment       0x0000ba11      0x413 ./obj/local/armeabi-v7a/mpeg4_asp_dec_lib.a(rvlc.o)
 .comment       0x0000be24      0x421 ./obj/local/armeabi-v7a/mpeg4_asp_dec_lib.a(rvlc_tables.o)
 .comment       0x0000c245      0x41d ./obj/local/armeabi-v7a/mpeg4_asp_dec_lib.a(vldecoder.o)
 .comment       0x0000c662      0x42b ./obj/local/armeabi-v7a/mpeg4_asp_dec_lib.a(vldecoder_tables.o)
 .comment       0x0000ca8d      0x138 ./obj/local/armeabi-v7a/mpeg4_asp_dec_lib.a(bitstream_cortexA8_neon.o)
 .comment       0x0000cbc5      0x138 ./obj/local/armeabi-v7a/mpeg4_asp_dec_lib.a(dequant_cortexA8_neon.o)
 .comment       0x0000ccfd      0x138 ./obj/local/armeabi-v7a/mpeg4_asp_dec_lib.a(idct_cortexA8_neon.o)
 .comment       0x0000ce35      0x138 ./obj/local/armeabi-v7a/mpeg4_asp_dec_lib.a(inv_acdc_pred_cortexA8.o)
 .comment       0x0000cf6d      0x138 ./obj/local/armeabi-v7a/mpeg4_asp_dec_lib.a(mc_AddBufferToBlkMatrix_funcs_cortexA8_neon.o)
 .comment       0x0000d0a5      0x138 ./obj/local/armeabi-v7a/mpeg4_asp_dec_lib.a(mc_interpolate_buf_cortexA8_neon.o)
 .comment       0x0000d1dd      0x431 ./obj/local/armeabi-v7a/mpeg4_asp_dec_lib.a(vldecoder_tables_s2.o)
 .comment       0x0000d60e      0x31e ./obj/local/armeabi-v7a/sys_utils.a(it_mem.o)
 .comment       0x00000000       0x12 /home/n-brulez/dev/sdk/android-ndk-r7/toolchains/arm-linux-androideabi-4.4.3/prebuilt/linux-x86/bin/../lib/gcc/arm-linux-androideabi/4.4.3/libgcc.a(bpabi.o)
 .comment       0x00000000       0x12 /home/n-brulez/dev/sdk/android-ndk-r7/toolchains/arm-linux-androideabi-4.4.3/prebuilt/linux-x86/bin/../lib/gcc/arm-linux-androideabi/4.4.3/libgcc.a(unwind-arm.o)
 .comment       0x00000000       0x12 /home/n-brulez/dev/sdk/android-ndk-r7/toolchains/arm-linux-androideabi-4.4.3/prebuilt/linux-x86/bin/../lib/gcc/arm-linux-androideabi/4.4.3/libgcc.a(pr-support.o)
 .comment       0x00000000       0x12 /home/n-brulez/dev/sdk/android-ndk-r7/toolchains/arm-linux-androideabi-4.4.3/prebuilt/linux-x86/bin/../lib/gcc/arm-linux-androideabi/4.4.3/libgcc.a(_divdi3.o)
 .comment       0x00000000       0x12 /home/n-brulez/dev/sdk/android-ndk-r7/toolchains/arm-linux-androideabi-4.4.3/prebuilt/linux-x86/bin/../lib/gcc/arm-linux-androideabi/4.4.3/libgcc.a(_udivdi3.o)

.debug
 *(.debug)

.line
 *(.line)

.debug_srcinfo
 *(.debug_srcinfo)

.debug_sfnames
 *(.debug_sfnames)

.debug_aranges  0x00000000      0x960
 *(.debug_aranges)
 .debug_aranges
                0x00000000       0x70 ./obj/local/armeabi-v7a/objs/adfreeflight/app.o
 .debug_aranges
                0x00000070       0x30 ./obj/local/armeabi-v7a/objs/adfreeflight/video_stage_io_file.o
 .debug_aranges
                0x000000a0       0x40 ./obj/local/armeabi-v7a/objs/adfreeflight/hardware_capabilites.o
 .debug_aranges
                0x000000e0       0xb8 ./obj/local/armeabi-v7a/objs/adfreeflight/Controller/ardrone_controller.o
 .debug_aranges
                0x00000198       0x60 ./obj/local/armeabi-v7a/objs/adfreeflight/ControlData.o
 .debug_aranges
                0x000001f8       0x38 ./obj/local/armeabi-v7a/objs/adfreeflight/Callbacks/drone_proxy_callbacks.o
 .debug_aranges
                0x00000230       0x50 ./obj/local/armeabi-v7a/objs/adfreeflight/Callbacks/java_callbacks.o
 .debug_aranges
                0x00000280       0x20 ./obj/local/armeabi-v7a/objs/adfreeflight/Plf/plf.o
 .debug_aranges
                0x000002a0       0xf8 ./obj/local/armeabi-v7a/objs/adfreeflight/Stubs/drone_stub.o
 .debug_aranges
                0x00000398       0x90 ./obj/local/armeabi-v7a/objs/adfreeflight/Stubs/drone_config_stub.o
 .debug_aranges
                0x00000428       0x88 ./obj/local/armeabi-v7a/objs/adfreeflight/Stubs/ftp_client_stub.o
 .debug_aranges
                0x000004b0       0x20 ./obj/local/armeabi-v7a/objs/adfreeflight/Stubs/plf_file_stub.o
 .debug_aranges
                0x000004d0       0x68 ./obj/local/armeabi-v7a/objs/adfreeflight/Stubs/transcoding_service_stub.o
 .debug_aranges
                0x00000538       0x30 ./obj/local/armeabi-v7a/objs/adfreeflight/Stubs/gl_bg_video_sprite_stub.o
 .debug_aranges
                0x00000568       0x40 ./obj/local/armeabi-v7a/objs/adfreeflight/NavData/nav_data.o
 .debug_aranges
                0x000005a8       0x38 ./obj/local/armeabi-v7a/objs/adfreeflight/Video/video_stage_renderer.o
 .debug_aranges
                0x000005e0       0x28 ./obj/local/armeabi-v7a/objs/adfreeflight/Video/frame_rate.o
 .debug_aranges
                0x00000608       0x30 ./obj/local/armeabi-v7a/objs/adfreeflight/Controller/virtual_gamepad.o
 .debug_aranges
                0x00000638       0x38 ./obj/local/armeabi-v7a/objs/adfreeflight/Video/opengl_stage.o
 .debug_aranges
                0x00000670       0x38 ./obj/local/armeabi-v7a/objs/adfreeflight/Video/opengl_shader.o
 .debug_aranges
                0x000006a8       0x38 ./obj/local/armeabi-v7a/objs/adfreeflight/Video/opengl_texture.o
 .debug_aranges
                0x000006e0       0x20 /home/n-brulez/dev/sdk/android-ndk-r7/toolchains/arm-linux-androideabi-4.4.3/prebuilt/linux-x86/bin/../lib/gcc/arm-linux-androideabi/4.4.3/libgcc.a(_udivsi3.o)
 .debug_aranges
                0x00000700       0x20 /home/n-brulez/dev/sdk/android-ndk-r7/toolchains/arm-linux-androideabi-4.4.3/prebuilt/linux-x86/bin/../lib/gcc/arm-linux-androideabi/4.4.3/libgcc.a(_divsi3.o)
 .debug_aranges
                0x00000720       0x20 /home/n-brulez/dev/sdk/android-ndk-r7/toolchains/arm-linux-androideabi-4.4.3/prebuilt/linux-x86/bin/../lib/gcc/arm-linux-androideabi/4.4.3/libgcc.a(_arm_addsubdf3.o)
 .debug_aranges
                0x00000740       0x20 /home/n-brulez/dev/sdk/android-ndk-r7/toolchains/arm-linux-androideabi-4.4.3/prebuilt/linux-x86/bin/../lib/gcc/arm-linux-androideabi/4.4.3/libgcc.a(_arm_muldivdf3.o)
 .debug_aranges
                0x00000760       0x20 /home/n-brulez/dev/sdk/android-ndk-r7/toolchains/arm-linux-androideabi-4.4.3/prebuilt/linux-x86/bin/../lib/gcc/arm-linux-androideabi/4.4.3/libgcc.a(_arm_cmpdf2.o)
 .debug_aranges
                0x00000780       0x20 /home/n-brulez/dev/sdk/android-ndk-r7/toolchains/arm-linux-androideabi-4.4.3/prebuilt/linux-x86/bin/../lib/gcc/arm-linux-androideabi/4.4.3/libgcc.a(_arm_fixdfsi.o)
 .debug_aranges
                0x000007a0       0x20 /home/n-brulez/dev/sdk/android-ndk-r7/toolchains/arm-linux-androideabi-4.4.3/prebuilt/linux-x86/bin/../lib/gcc/arm-linux-androideabi/4.4.3/libgcc.a(_arm_truncdfsf2.o)
 .debug_aranges
                0x000007c0       0x20 /home/n-brulez/dev/sdk/android-ndk-r7/toolchains/arm-linux-androideabi-4.4.3/prebuilt/linux-x86/bin/../lib/gcc/arm-linux-androideabi/4.4.3/libgcc.a(_arm_addsubsf3.o)
 .debug_aranges
                0x000007e0       0x20 /home/n-brulez/dev/sdk/android-ndk-r7/toolchains/arm-linux-androideabi-4.4.3/prebuilt/linux-x86/bin/../lib/gcc/arm-linux-androideabi/4.4.3/libgcc.a(_arm_muldivsf3.o)
 .debug_aranges
                0x00000800       0x20 /home/n-brulez/dev/sdk/android-ndk-r7/toolchains/arm-linux-androideabi-4.4.3/prebuilt/linux-x86/bin/../lib/gcc/arm-linux-androideabi/4.4.3/libgcc.a(_arm_cmpsf2.o)
 .debug_aranges
                0x00000820       0x20 /home/n-brulez/dev/sdk/android-ndk-r7/toolchains/arm-linux-androideabi-4.4.3/prebuilt/linux-x86/bin/../lib/gcc/arm-linux-androideabi/4.4.3/libgcc.a(_arm_fixunssfsi.o)
 .debug_aranges
                0x00000840       0x20 /home/n-brulez/dev/sdk/android-ndk-r7/toolchains/arm-linux-androideabi-4.4.3/prebuilt/linux-x86/bin/../lib/gcc/arm-linux-androideabi/4.4.3/libgcc.a(_aeabi_ldivmod.o)
 .debug_aranges
                0x00000860       0x20 /home/n-brulez/dev/sdk/android-ndk-r7/toolchains/arm-linux-androideabi-4.4.3/prebuilt/linux-x86/bin/../lib/gcc/arm-linux-androideabi/4.4.3/libgcc.a(_aeabi_uldivmod.o)
 .debug_aranges
                0x00000880       0x20 /home/n-brulez/dev/sdk/android-ndk-r7/toolchains/arm-linux-androideabi-4.4.3/prebuilt/linux-x86/bin/../lib/gcc/arm-linux-androideabi/4.4.3/libgcc.a(_dvmd_lnx.o)
 .debug_aranges
                0x000008a0       0x20 /home/n-brulez/dev/sdk/android-ndk-r7/toolchains/arm-linux-androideabi-4.4.3/prebuilt/linux-x86/bin/../lib/gcc/arm-linux-androideabi/4.4.3/libgcc.a(bpabi.o)
 .debug_aranges
                0x000008c0       0x20 /home/n-brulez/dev/sdk/android-ndk-r7/toolchains/arm-linux-androideabi-4.4.3/prebuilt/linux-x86/bin/../lib/gcc/arm-linux-androideabi/4.4.3/libgcc.a(unwind-arm.o)
 .debug_aranges
                0x000008e0       0x20 /home/n-brulez/dev/sdk/android-ndk-r7/toolchains/arm-linux-androideabi-4.4.3/prebuilt/linux-x86/bin/../lib/gcc/arm-linux-androideabi/4.4.3/libgcc.a(libunwind.o)
 .debug_aranges
                0x00000900       0x20 /home/n-brulez/dev/sdk/android-ndk-r7/toolchains/arm-linux-androideabi-4.4.3/prebuilt/linux-x86/bin/../lib/gcc/arm-linux-androideabi/4.4.3/libgcc.a(pr-support.o)
 .debug_aranges
                0x00000920       0x20 /home/n-brulez/dev/sdk/android-ndk-r7/toolchains/arm-linux-androideabi-4.4.3/prebuilt/linux-x86/bin/../lib/gcc/arm-linux-androideabi/4.4.3/libgcc.a(_divdi3.o)
 .debug_aranges
                0x00000940       0x20 /home/n-brulez/dev/sdk/android-ndk-r7/toolchains/arm-linux-androideabi-4.4.3/prebuilt/linux-x86/bin/../lib/gcc/arm-linux-androideabi/4.4.3/libgcc.a(_udivdi3.o)

.debug_pubnames
                0x00000000     0x2051
 *(.debug_pubnames)
 .debug_pubnames
                0x00000000      0x183 ./obj/local/armeabi-v7a/objs/adfreeflight/app.o
 .debug_pubnames
                0x00000183       0x9f ./obj/local/armeabi-v7a/objs/adfreeflight/video_stage_io_file.o
 .debug_pubnames
                0x00000222       0x97 ./obj/local/armeabi-v7a/objs/adfreeflight/hardware_capabilites.o
 .debug_pubnames
                0x000002b9      0x315 ./obj/local/armeabi-v7a/objs/adfreeflight/Controller/ardrone_controller.o
 .debug_pubnames
                0x000005ce       0xc5 ./obj/local/armeabi-v7a/objs/adfreeflight/ControlData.o
 .debug_pubnames
                0x00000693       0xac ./obj/local/armeabi-v7a/objs/adfreeflight/Callbacks/drone_proxy_callbacks.o
 .debug_pubnames
                0x0000073f      0x11b ./obj/local/armeabi-v7a/objs/adfreeflight/Callbacks/java_callbacks.o
 .debug_pubnames
                0x0000085a       0x25 ./obj/local/armeabi-v7a/objs/adfreeflight/Plf/plf.o
 .debug_pubnames
                0x0000087f      0x66e ./obj/local/armeabi-v7a/objs/adfreeflight/Stubs/drone_stub.o
 .debug_pubnames
                0x00000eed      0x430 ./obj/local/armeabi-v7a/objs/adfreeflight/Stubs/drone_config_stub.o
 .debug_pubnames
                0x0000131d      0x18b ./obj/local/armeabi-v7a/objs/adfreeflight/Stubs/ftp_client_stub.o
 .debug_pubnames
                0x000014a8       0x43 ./obj/local/armeabi-v7a/objs/adfreeflight/Stubs/plf_file_stub.o
 .debug_pubnames
                0x000014eb      0x1bc ./obj/local/armeabi-v7a/objs/adfreeflight/Stubs/transcoding_service_stub.o
 .debug_pubnames
                0x000016a7      0x10f ./obj/local/armeabi-v7a/objs/adfreeflight/Stubs/gl_bg_video_sprite_stub.o
 .debug_pubnames
                0x000017b6       0xb7 ./obj/local/armeabi-v7a/objs/adfreeflight/NavData/nav_data.o
 .debug_pubnames
                0x0000186d      0x108 ./obj/local/armeabi-v7a/objs/adfreeflight/Video/video_stage_renderer.o
 .debug_pubnames
                0x00001975       0x55 ./obj/local/armeabi-v7a/objs/adfreeflight/Video/frame_rate.o
 .debug_pubnames
                0x000019ca       0x26 ./obj/local/armeabi-v7a/objs/adfreeflight/Controller/virtual_gamepad.o
 .debug_pubnames
                0x000019f0       0xb2 ./obj/local/armeabi-v7a/objs/adfreeflight/Video/opengl_stage.o
 .debug_pubnames
                0x00001aa2       0x78 ./obj/local/armeabi-v7a/objs/adfreeflight/Video/opengl_shader.o
 .debug_pubnames
                0x00001b1a       0x7e ./obj/local/armeabi-v7a/objs/adfreeflight/Video/opengl_texture.o
 .debug_pubnames
                0x00001b98      0x111 ./obj/local/armeabi-v7a/h264_dec_lib.a(cncl.rel.rvds.o)
 .debug_pubnames
                0x00001ca9       0xf6 ./obj/local/armeabi-v7a/h264_dec_lib.a(cncl.rel.rvds.o)
 .debug_pubnames
                0x00001d9f       0x45 /home/n-brulez/dev/sdk/android-ndk-r7/toolchains/arm-linux-androideabi-4.4.3/prebuilt/linux-x86/bin/../lib/gcc/arm-linux-androideabi/4.4.3/libgcc.a(bpabi.o)
 .debug_pubnames
                0x00001de4      0x177 /home/n-brulez/dev/sdk/android-ndk-r7/toolchains/arm-linux-androideabi-4.4.3/prebuilt/linux-x86/bin/../lib/gcc/arm-linux-androideabi/4.4.3/libgcc.a(unwind-arm.o)
 .debug_pubnames
                0x00001f5b       0xb7 /home/n-brulez/dev/sdk/android-ndk-r7/toolchains/arm-linux-androideabi-4.4.3/prebuilt/linux-x86/bin/../lib/gcc/arm-linux-androideabi/4.4.3/libgcc.a(pr-support.o)
 .debug_pubnames
                0x00002012       0x1f /home/n-brulez/dev/sdk/android-ndk-r7/toolchains/arm-linux-androideabi-4.4.3/prebuilt/linux-x86/bin/../lib/gcc/arm-linux-androideabi/4.4.3/libgcc.a(_divdi3.o)
 .debug_pubnames
                0x00002031       0x20 /home/n-brulez/dev/sdk/android-ndk-r7/toolchains/arm-linux-androideabi-4.4.3/prebuilt/linux-x86/bin/../lib/gcc/arm-linux-androideabi/4.4.3/libgcc.a(_udivdi3.o)

.debug_info     0x00000000    0x3f6f1
 *(.debug_info .gnu.linkonce.wi.*)
 .debug_info    0x00000000     0x70be ./obj/local/armeabi-v7a/objs/adfreeflight/app.o
 .debug_info    0x000070be      0x6d7 ./obj/local/armeabi-v7a/objs/adfreeflight/video_stage_io_file.o
 .debug_info    0x00007795      0x616 ./obj/local/armeabi-v7a/objs/adfreeflight/hardware_capabilites.o
 .debug_info    0x00007dab      0xd58 ./obj/local/armeabi-v7a/objs/adfreeflight/Controller/ardrone_controller.o
 .debug_info    0x00008b03     0x1007 ./obj/local/armeabi-v7a/objs/adfreeflight/ControlData.o
 .debug_info    0x00009b0a     0x328f ./obj/local/armeabi-v7a/objs/adfreeflight/Callbacks/drone_proxy_callbacks.o
 .debug_info    0x0000cd99     0x34a8 ./obj/local/armeabi-v7a/objs/adfreeflight/Callbacks/java_callbacks.o
 .debug_info    0x00010241      0x3ff ./obj/local/armeabi-v7a/objs/adfreeflight/Plf/plf.o
 .debug_info    0x00010640     0x61ec ./obj/local/armeabi-v7a/objs/adfreeflight/Stubs/drone_stub.o
 .debug_info    0x0001682c     0x3f5b ./obj/local/armeabi-v7a/objs/adfreeflight/Stubs/drone_config_stub.o
 .debug_info    0x0001a787     0x3bfb ./obj/local/armeabi-v7a/objs/adfreeflight/Stubs/ftp_client_stub.o
 .debug_info    0x0001e382     0x339a ./obj/local/armeabi-v7a/objs/adfreeflight/Stubs/plf_file_stub.o
 .debug_info    0x0002171c     0x85ec ./obj/local/armeabi-v7a/objs/adfreeflight/Stubs/transcoding_service_stub.o
 .debug_info    0x00029d08     0x6798 ./obj/local/armeabi-v7a/objs/adfreeflight/Stubs/gl_bg_video_sprite_stub.o
 .debug_info    0x000304a0     0x1f20 ./obj/local/armeabi-v7a/objs/adfreeflight/NavData/nav_data.o
 .debug_info    0x000323c0     0x3322 ./obj/local/armeabi-v7a/objs/adfreeflight/Video/video_stage_renderer.o
 .debug_info    0x000356e2      0x263 ./obj/local/armeabi-v7a/objs/adfreeflight/Video/frame_rate.o
 .debug_info    0x00035945      0x3a6 ./obj/local/armeabi-v7a/objs/adfreeflight/Controller/virtual_gamepad.o
 .debug_info    0x00035ceb     0x3732 ./obj/local/armeabi-v7a/objs/adfreeflight/Video/opengl_stage.o
 .debug_info    0x0003941d      0x343 ./obj/local/armeabi-v7a/objs/adfreeflight/Video/opengl_shader.o
 .debug_info    0x00039760      0x6ae ./obj/local/armeabi-v7a/objs/adfreeflight/Video/opengl_texture.o
 .debug_info    0x00039e0e       0xa8 ./obj/local/armeabi-v7a/h264_dec_lib.a(cncl.rel.rvds.o)
                0x00039e0e                __ARM_cc.string.h.2_Iu0000_tIYdhWa8sH2_300000
                0x00039e0e                __ARM_grp_.debug_info$string.h$2_Iu0000_tIYdhWa8sH2_300000
 .debug_info    0x00039eb6      0x27c ./obj/local/armeabi-v7a/h264_dec_lib.a(cncl.rel.rvds.o)
                0x00039eb6                __ARM_cc.stdio.h.2_5G1000_6njTvmm0a3d_700000
                0x00039eb6                __ARM_grp_.debug_info$stdio.h$2_5G1000_6njTvmm0a3d_700000
 .debug_info    0x0003a132      0x210 ./obj/local/armeabi-v7a/h264_dec_lib.a(cncl.rel.rvds.o)
                0x0003a132                __ARM_grp_.debug_info$ittiam_datatypes.h$2_sK0000_RLL251MOQ13_300000
                0x0003a132                __ARM_cc.ittiam_datatypes.h.2_sK0000_RLL251MOQ13_300000
 .debug_info    0x0003a342      0xacc ./obj/local/armeabi-v7a/h264_dec_lib.a(cncl.rel.rvds.o)
                0x0003a342                __ARM_grp_.debug_info$iv.h$2_kk1000_UP$$Hx0CWS5_y00000
                0x0003a342                __ARM_cc.iv.h.2_kk1000_UP$$Hx0CWS5_y00000
 .debug_info    0x0003ae0e      0x4f4 ./obj/local/armeabi-v7a/h264_dec_lib.a(cncl.rel.rvds.o)
                0x0003ae0e                __ARM_cc.cncl.h.2_8L1000_btLt80OUCSf_W00000
                0x0003ae0e                __ARM_grp_.debug_info$cncl.h$2_8L1000_btLt80OUCSf_W00000
 .debug_info    0x0003b302      0x230 ./obj/local/armeabi-v7a/h264_dec_lib.a(cncl.rel.rvds.o)
                0x0003b302                __ARM_cc.cncl_structs.h.2_kv1000_dsJjRVPnyqc_K00000
                0x0003b302                __ARM_grp_.debug_info$cncl_structs.h$2_kv1000_dsJjRVPnyqc_K00000
 .debug_info    0x0003b532       0xe0 ./obj/local/armeabi-v7a/h264_dec_lib.a(cncl.rel.rvds.o)
                0x0003b532                __ARM_grp_.debug_info$cncl_functions.h$2_Yt0000_vFfjZHqELT7_300000
                0x0003b532                __ARM_cc.cncl_functions.h.2_Yt0000_vFfjZHqELT7_300000
 .debug_info    0x0003b612      0x120 ./obj/local/armeabi-v7a/h264_dec_lib.a(cncl.rel.rvds.o)
                0x0003b612                __ARM_cc.cncl.c.2_U52000_KDzEor5hTG9_m10000
                0x0003b612                __ARM_grp_.debug_info$cncl.c$2_U52000_KDzEor5hTG9_m10000
 .debug_info    0x0003b732       0xc8 ./obj/local/armeabi-v7a/h264_dec_lib.a(cncl.rel.rvds.o)
 .debug_info    0x0003b7fa      0xcd4 ./obj/local/armeabi-v7a/h264_dec_lib.a(cncl.rel.rvds.o)
 .debug_info    0x0003c4ce       0xbf /home/n-brulez/dev/sdk/android-ndk-r7/toolchains/arm-linux-androideabi-4.4.3/prebuilt/linux-x86/bin/../lib/gcc/arm-linux-androideabi/4.4.3/libgcc.a(_udivsi3.o)
 .debug_info    0x0003c58d       0xbf /home/n-brulez/dev/sdk/android-ndk-r7/toolchains/arm-linux-androideabi-4.4.3/prebuilt/linux-x86/bin/../lib/gcc/arm-linux-androideabi/4.4.3/libgcc.a(_divsi3.o)
 .debug_info    0x0003c64c       0xbe /home/n-brulez/dev/sdk/android-ndk-r7/toolchains/arm-linux-androideabi-4.4.3/prebuilt/linux-x86/bin/../lib/gcc/arm-linux-androideabi/4.4.3/libgcc.a(_arm_addsubdf3.o)
 .debug_info    0x0003c70a       0xbe /home/n-brulez/dev/sdk/android-ndk-r7/toolchains/arm-linux-androideabi-4.4.3/prebuilt/linux-x86/bin/../lib/gcc/arm-linux-androideabi/4.4.3/libgcc.a(_arm_muldivdf3.o)
 .debug_info    0x0003c7c8       0xbe /home/n-brulez/dev/sdk/android-ndk-r7/toolchains/arm-linux-androideabi-4.4.3/prebuilt/linux-x86/bin/../lib/gcc/arm-linux-androideabi/4.4.3/libgcc.a(_arm_cmpdf2.o)
 .debug_info    0x0003c886       0xbe /home/n-brulez/dev/sdk/android-ndk-r7/toolchains/arm-linux-androideabi-4.4.3/prebuilt/linux-x86/bin/../lib/gcc/arm-linux-androideabi/4.4.3/libgcc.a(_arm_fixdfsi.o)
 .debug_info    0x0003c944       0xbe /home/n-brulez/dev/sdk/android-ndk-r7/toolchains/arm-linux-androideabi-4.4.3/prebuilt/linux-x86/bin/../lib/gcc/arm-linux-androideabi/4.4.3/libgcc.a(_arm_truncdfsf2.o)
 .debug_info    0x0003ca02       0xbe /home/n-brulez/dev/sdk/android-ndk-r7/toolchains/arm-linux-androideabi-4.4.3/prebuilt/linux-x86/bin/../lib/gcc/arm-linux-androideabi/4.4.3/libgcc.a(_arm_addsubsf3.o)
 .debug_info    0x0003cac0       0xbe /home/n-brulez/dev/sdk/android-ndk-r7/toolchains/arm-linux-androideabi-4.4.3/prebuilt/linux-x86/bin/../lib/gcc/arm-linux-androideabi/4.4.3/libgcc.a(_arm_muldivsf3.o)
 .debug_info    0x0003cb7e       0xbe /home/n-brulez/dev/sdk/android-ndk-r7/toolchains/arm-linux-androideabi-4.4.3/prebuilt/linux-x86/bin/../lib/gcc/arm-linux-androideabi/4.4.3/libgcc.a(_arm_cmpsf2.o)
 .debug_info    0x0003cc3c       0xbe /home/n-brulez/dev/sdk/android-ndk-r7/toolchains/arm-linux-androideabi-4.4.3/prebuilt/linux-x86/bin/../lib/gcc/arm-linux-androideabi/4.4.3/libgcc.a(_arm_fixunssfsi.o)
 .debug_info    0x0003ccfa       0xb9 /home/n-brulez/dev/sdk/android-ndk-r7/toolchains/arm-linux-androideabi-4.4.3/prebuilt/linux-x86/bin/../lib/gcc/arm-linux-androideabi/4.4.3/libgcc.a(_aeabi_ldivmod.o)
 .debug_info    0x0003cdb3       0xb9 /home/n-brulez/dev/sdk/android-ndk-r7/toolchains/arm-linux-androideabi-4.4.3/prebuilt/linux-x86/bin/../lib/gcc/arm-linux-androideabi/4.4.3/libgcc.a(_aeabi_uldivmod.o)
 .debug_info    0x0003ce6c       0xbf /home/n-brulez/dev/sdk/android-ndk-r7/toolchains/arm-linux-androideabi-4.4.3/prebuilt/linux-x86/bin/../lib/gcc/arm-linux-androideabi/4.4.3/libgcc.a(_dvmd_lnx.o)
 .debug_info    0x0003cf2b       0xde /home/n-brulez/dev/sdk/android-ndk-r7/toolchains/arm-linux-androideabi-4.4.3/prebuilt/linux-x86/bin/../lib/gcc/arm-linux-androideabi/4.4.3/libgcc.a(bpabi.o)
 .debug_info    0x0003d009     0x1424 /home/n-brulez/dev/sdk/android-ndk-r7/toolchains/arm-linux-androideabi-4.4.3/prebuilt/linux-x86/bin/../lib/gcc/arm-linux-androideabi/4.4.3/libgcc.a(unwind-arm.o)
 .debug_info    0x0003e42d       0xbd /home/n-brulez/dev/sdk/android-ndk-r7/toolchains/arm-linux-androideabi-4.4.3/prebuilt/linux-x86/bin/../lib/gcc/arm-linux-androideabi/4.4.3/libgcc.a(libunwind.o)
 .debug_info    0x0003e4ea      0x636 /home/n-brulez/dev/sdk/android-ndk-r7/toolchains/arm-linux-androideabi-4.4.3/prebuilt/linux-x86/bin/../lib/gcc/arm-linux-androideabi/4.4.3/libgcc.a(pr-support.o)
 .debug_info    0x0003eb20      0x606 /home/n-brulez/dev/sdk/android-ndk-r7/toolchains/arm-linux-androideabi-4.4.3/prebuilt/linux-x86/bin/../lib/gcc/arm-linux-androideabi/4.4.3/libgcc.a(_divdi3.o)
 .debug_info    0x0003f126      0x5cb /home/n-brulez/dev/sdk/android-ndk-r7/toolchains/arm-linux-androideabi-4.4.3/prebuilt/linux-x86/bin/../lib/gcc/arm-linux-androideabi/4.4.3/libgcc.a(_udivdi3.o)

.debug_abbrev   0x00000000     0x3bb0
 *(.debug_abbrev)
 .debug_abbrev  0x00000000      0x3ab ./obj/local/armeabi-v7a/objs/adfreeflight/app.o
 .debug_abbrev  0x000003ab      0x11e ./obj/local/armeabi-v7a/objs/adfreeflight/video_stage_io_file.o
 .debug_abbrev  0x000004c9      0x18d ./obj/local/armeabi-v7a/objs/adfreeflight/hardware_capabilites.o
 .debug_abbrev  0x00000656      0x1ef ./obj/local/armeabi-v7a/objs/adfreeflight/Controller/ardrone_controller.o
 .debug_abbrev  0x00000845      0x223 ./obj/local/armeabi-v7a/objs/adfreeflight/ControlData.o
 .debug_abbrev  0x00000a68      0x1c6 ./obj/local/armeabi-v7a/objs/adfreeflight/Callbacks/drone_proxy_callbacks.o
 .debug_abbrev  0x00000c2e      0x1f6 ./obj/local/armeabi-v7a/objs/adfreeflight/Callbacks/java_callbacks.o
 .debug_abbrev  0x00000e24      0x10c ./obj/local/armeabi-v7a/objs/adfreeflight/Plf/plf.o
 .debug_abbrev  0x00000f30      0x31d ./obj/local/armeabi-v7a/objs/adfreeflight/Stubs/drone_stub.o
 .debug_abbrev  0x0000124d      0x2d0 ./obj/local/armeabi-v7a/objs/adfreeflight/Stubs/drone_config_stub.o
 .debug_abbrev  0x0000151d      0x297 ./obj/local/armeabi-v7a/objs/adfreeflight/Stubs/ftp_client_stub.o
 .debug_abbrev  0x000017b4      0x228 ./obj/local/armeabi-v7a/objs/adfreeflight/Stubs/plf_file_stub.o
 .debug_abbrev  0x000019dc      0x4ae ./obj/local/armeabi-v7a/objs/adfreeflight/Stubs/transcoding_service_stub.o
 .debug_abbrev  0x00001e8a      0x2b7 ./obj/local/armeabi-v7a/objs/adfreeflight/Stubs/gl_bg_video_sprite_stub.o
 .debug_abbrev  0x00002141      0x26f ./obj/local/armeabi-v7a/objs/adfreeflight/NavData/nav_data.o
 .debug_abbrev  0x000023b0      0x201 ./obj/local/armeabi-v7a/objs/adfreeflight/Video/video_stage_renderer.o
 .debug_abbrev  0x000025b1       0xdc ./obj/local/armeabi-v7a/objs/adfreeflight/Video/frame_rate.o
 .debug_abbrev  0x0000268d      0x105 ./obj/local/armeabi-v7a/objs/adfreeflight/Controller/virtual_gamepad.o
 .debug_abbrev  0x00002792      0x1f8 ./obj/local/armeabi-v7a/objs/adfreeflight/Video/opengl_stage.o
 .debug_abbrev  0x0000298a       0xf7 ./obj/local/armeabi-v7a/objs/adfreeflight/Video/opengl_shader.o
 .debug_abbrev  0x00002a81      0x162 ./obj/local/armeabi-v7a/objs/adfreeflight/Video/opengl_texture.o
 .debug_abbrev  0x00002be3      0x564 ./obj/local/armeabi-v7a/h264_dec_lib.a(cncl.rel.rvds.o)
                0x00002be3                __ARM_cc..debug_abbrev.group.2_Al0000_lzmnOQc_au0_000000
 .debug_abbrev  0x00003147       0x14 /home/n-brulez/dev/sdk/android-ndk-r7/toolchains/arm-linux-androideabi-4.4.3/prebuilt/linux-x86/bin/../lib/gcc/arm-linux-androideabi/4.4.3/libgcc.a(_udivsi3.o)
 .debug_abbrev  0x0000315b       0x14 /home/n-brulez/dev/sdk/android-ndk-r7/toolchains/arm-linux-androideabi-4.4.3/prebuilt/linux-x86/bin/../lib/gcc/arm-linux-androideabi/4.4.3/libgcc.a(_divsi3.o)
 .debug_abbrev  0x0000316f       0x14 /home/n-brulez/dev/sdk/android-ndk-r7/toolchains/arm-linux-androideabi-4.4.3/prebuilt/linux-x86/bin/../lib/gcc/arm-linux-androideabi/4.4.3/libgcc.a(_arm_addsubdf3.o)
 .debug_abbrev  0x00003183       0x14 /home/n-brulez/dev/sdk/android-ndk-r7/toolchains/arm-linux-androideabi-4.4.3/prebuilt/linux-x86/bin/../lib/gcc/arm-linux-androideabi/4.4.3/libgcc.a(_arm_muldivdf3.o)
 .debug_abbrev  0x00003197       0x14 /home/n-brulez/dev/sdk/android-ndk-r7/toolchains/arm-linux-androideabi-4.4.3/prebuilt/linux-x86/bin/../lib/gcc/arm-linux-androideabi/4.4.3/libgcc.a(_arm_cmpdf2.o)
 .debug_abbrev  0x000031ab       0x14 /home/n-brulez/dev/sdk/android-ndk-r7/toolchains/arm-linux-androideabi-4.4.3/prebuilt/linux-x86/bin/../lib/gcc/arm-linux-androideabi/4.4.3/libgcc.a(_arm_fixdfsi.o)
 .debug_abbrev  0x000031bf       0x14 /home/n-brulez/dev/sdk/android-ndk-r7/toolchains/arm-linux-androideabi-4.4.3/prebuilt/linux-x86/bin/../lib/gcc/arm-linux-androideabi/4.4.3/libgcc.a(_arm_truncdfsf2.o)
 .debug_abbrev  0x000031d3       0x14 /home/n-brulez/dev/sdk/android-ndk-r7/toolchains/arm-linux-androideabi-4.4.3/prebuilt/linux-x86/bin/../lib/gcc/arm-linux-androideabi/4.4.3/libgcc.a(_arm_addsubsf3.o)
 .debug_abbrev  0x000031e7       0x14 /home/n-brulez/dev/sdk/android-ndk-r7/toolchains/arm-linux-androideabi-4.4.3/prebuilt/linux-x86/bin/../lib/gcc/arm-linux-androideabi/4.4.3/libgcc.a(_arm_muldivsf3.o)
 .debug_abbrev  0x000031fb       0x14 /home/n-brulez/dev/sdk/android-ndk-r7/toolchains/arm-linux-androideabi-4.4.3/prebuilt/linux-x86/bin/../lib/gcc/arm-linux-androideabi/4.4.3/libgcc.a(_arm_cmpsf2.o)
 .debug_abbrev  0x0000320f       0x14 /home/n-brulez/dev/sdk/android-ndk-r7/toolchains/arm-linux-androideabi-4.4.3/prebuilt/linux-x86/bin/../lib/gcc/arm-linux-androideabi/4.4.3/libgcc.a(_arm_fixunssfsi.o)
 .debug_abbrev  0x00003223       0x14 /home/n-brulez/dev/sdk/android-ndk-r7/toolchains/arm-linux-androideabi-4.4.3/prebuilt/linux-x86/bin/../lib/gcc/arm-linux-androideabi/4.4.3/libgcc.a(_aeabi_ldivmod.o)
 .debug_abbrev  0x00003237       0x14 /home/n-brulez/dev/sdk/android-ndk-r7/toolchains/arm-linux-androideabi-4.4.3/prebuilt/linux-x86/bin/../lib/gcc/arm-linux-androideabi/4.4.3/libgcc.a(_aeabi_uldivmod.o)
 .debug_abbrev  0x0000324b       0x14 /home/n-brulez/dev/sdk/android-ndk-r7/toolchains/arm-linux-androideabi-4.4.3/prebuilt/linux-x86/bin/../lib/gcc/arm-linux-androideabi/4.4.3/libgcc.a(_dvmd_lnx.o)
 .debug_abbrev  0x0000325f       0x6a /home/n-brulez/dev/sdk/android-ndk-r7/toolchains/arm-linux-androideabi-4.4.3/prebuilt/linux-x86/bin/../lib/gcc/arm-linux-androideabi/4.4.3/libgcc.a(bpabi.o)
 .debug_abbrev  0x000032c9      0x3bb /home/n-brulez/dev/sdk/android-ndk-r7/toolchains/arm-linux-androideabi-4.4.3/prebuilt/linux-x86/bin/../lib/gcc/arm-linux-androideabi/4.4.3/libgcc.a(unwind-arm.o)
 .debug_abbrev  0x00003684       0x14 /home/n-brulez/dev/sdk/android-ndk-r7/toolchains/arm-linux-androideabi-4.4.3/prebuilt/linux-x86/bin/../lib/gcc/arm-linux-androideabi/4.4.3/libgcc.a(libunwind.o)
 .debug_abbrev  0x00003698      0x220 /home/n-brulez/dev/sdk/android-ndk-r7/toolchains/arm-linux-androideabi-4.4.3/prebuilt/linux-x86/bin/../lib/gcc/arm-linux-androideabi/4.4.3/libgcc.a(pr-support.o)
 .debug_abbrev  0x000038b8      0x18b /home/n-brulez/dev/sdk/android-ndk-r7/toolchains/arm-linux-androideabi-4.4.3/prebuilt/linux-x86/bin/../lib/gcc/arm-linux-androideabi/4.4.3/libgcc.a(_divdi3.o)
 .debug_abbrev  0x00003a43      0x16d /home/n-brulez/dev/sdk/android-ndk-r7/toolchains/arm-linux-androideabi-4.4.3/prebuilt/linux-x86/bin/../lib/gcc/arm-linux-androideabi/4.4.3/libgcc.a(_udivdi3.o)

.debug_line     0x00000000     0xa088
 *(.debug_line)
 .debug_line    0x00000000      0xd02 ./obj/local/armeabi-v7a/objs/adfreeflight/app.o
 .debug_line    0x00000d02      0x3d6 ./obj/local/armeabi-v7a/objs/adfreeflight/video_stage_io_file.o
 .debug_line    0x000010d8      0x427 ./obj/local/armeabi-v7a/objs/adfreeflight/hardware_capabilites.o
 .debug_line    0x000014ff      0x4e4 ./obj/local/armeabi-v7a/objs/adfreeflight/Controller/ardrone_controller.o
 .debug_line    0x000019e3      0x6cd ./obj/local/armeabi-v7a/objs/adfreeflight/ControlData.o
 .debug_line    0x000020b0      0x3eb ./obj/local/armeabi-v7a/objs/adfreeflight/Callbacks/drone_proxy_callbacks.o
 .debug_line    0x0000249b      0x450 ./obj/local/armeabi-v7a/objs/adfreeflight/Callbacks/java_callbacks.o
 .debug_line    0x000028eb      0x17e ./obj/local/armeabi-v7a/objs/adfreeflight/Plf/plf.o
 .debug_line    0x00002a69      0xb4f ./obj/local/armeabi-v7a/objs/adfreeflight/Stubs/drone_stub.o
 .debug_line    0x000035b8      0x74a ./obj/local/armeabi-v7a/objs/adfreeflight/Stubs/drone_config_stub.o
 .debug_line    0x00003d02      0x678 ./obj/local/armeabi-v7a/objs/adfreeflight/Stubs/ftp_client_stub.o
 .debug_line    0x0000437a      0x3bb ./obj/local/armeabi-v7a/objs/adfreeflight/Stubs/plf_file_stub.o
 .debug_line    0x00004735      0xd61 ./obj/local/armeabi-v7a/objs/adfreeflight/Stubs/transcoding_service_stub.o
 .debug_line    0x00005496      0x885 ./obj/local/armeabi-v7a/objs/adfreeflight/Stubs/gl_bg_video_sprite_stub.o
 .debug_line    0x00005d1b      0x61a ./obj/local/armeabi-v7a/objs/adfreeflight/NavData/nav_data.o
 .debug_line    0x00006335      0x37e ./obj/local/armeabi-v7a/objs/adfreeflight/Video/video_stage_renderer.o
 .debug_line    0x000066b3      0x306 ./obj/local/armeabi-v7a/objs/adfreeflight/Video/frame_rate.o
 .debug_line    0x000069b9      0x36e ./obj/local/armeabi-v7a/objs/adfreeflight/Controller/virtual_gamepad.o
 .debug_line    0x00006d27      0x82b ./obj/local/armeabi-v7a/objs/adfreeflight/Video/opengl_stage.o
 .debug_line    0x00007552      0x287 ./obj/local/armeabi-v7a/objs/adfreeflight/Video/opengl_shader.o
 .debug_line    0x000077d9      0x518 ./obj/local/armeabi-v7a/objs/adfreeflight/Video/opengl_texture.o
 .debug_line    0x00007cf1       0x64 ./obj/local/armeabi-v7a/h264_dec_lib.a(cncl.rel.rvds.o)
 .debug_line    0x00007d55       0x70 ./obj/local/armeabi-v7a/h264_dec_lib.a(cncl.rel.rvds.o)
 .debug_line    0x00007dc5       0x60 ./obj/local/armeabi-v7a/h264_dec_lib.a(cncl.rel.rvds.o)
 .debug_line    0x00007e25       0x50 ./obj/local/armeabi-v7a/h264_dec_lib.a(cncl.rel.rvds.o)
 .debug_line    0x00007e75       0x80 ./obj/local/armeabi-v7a/h264_dec_lib.a(cncl.rel.rvds.o)
 .debug_line    0x00007ef5       0x5c ./obj/local/armeabi-v7a/h264_dec_lib.a(cncl.rel.rvds.o)
 .debug_line    0x00007f51       0x5c ./obj/local/armeabi-v7a/h264_dec_lib.a(cncl.rel.rvds.o)
 .debug_line    0x00007fad      0x158 ./obj/local/armeabi-v7a/h264_dec_lib.a(cncl.rel.rvds.o)
 .debug_line    0x00008105       0x44 ./obj/local/armeabi-v7a/h264_dec_lib.a(cncl.rel.rvds.o)
 .debug_line    0x00008149      0x5d4 ./obj/local/armeabi-v7a/h264_dec_lib.a(cncl.rel.rvds.o)
 .debug_line    0x0000871d       0xa8 /home/n-brulez/dev/sdk/android-ndk-r7/toolchains/arm-linux-androideabi-4.4.3/prebuilt/linux-x86/bin/../lib/gcc/arm-linux-androideabi/4.4.3/libgcc.a(_udivsi3.o)
 .debug_line    0x000087c5       0xb4 /home/n-brulez/dev/sdk/android-ndk-r7/toolchains/arm-linux-androideabi-4.4.3/prebuilt/linux-x86/bin/../lib/gcc/arm-linux-androideabi/4.4.3/libgcc.a(_divsi3.o)
 .debug_line    0x00008879      0x1fc /home/n-brulez/dev/sdk/android-ndk-r7/toolchains/arm-linux-androideabi-4.4.3/prebuilt/linux-x86/bin/../lib/gcc/arm-linux-androideabi/4.4.3/libgcc.a(_arm_addsubdf3.o)
 .debug_line    0x00008a75      0x21d /home/n-brulez/dev/sdk/android-ndk-r7/toolchains/arm-linux-androideabi-4.4.3/prebuilt/linux-x86/bin/../lib/gcc/arm-linux-androideabi/4.4.3/libgcc.a(_arm_muldivdf3.o)
 .debug_line    0x00008c92      0x114 /home/n-brulez/dev/sdk/android-ndk-r7/toolchains/arm-linux-androideabi-4.4.3/prebuilt/linux-x86/bin/../lib/gcc/arm-linux-androideabi/4.4.3/libgcc.a(_arm_cmpdf2.o)
 .debug_line    0x00008da6       0x96 /home/n-brulez/dev/sdk/android-ndk-r7/toolchains/arm-linux-androideabi-4.4.3/prebuilt/linux-x86/bin/../lib/gcc/arm-linux-androideabi/4.4.3/libgcc.a(_arm_fixdfsi.o)
 .debug_line    0x00008e3c       0xa7 /home/n-brulez/dev/sdk/android-ndk-r7/toolchains/arm-linux-androideabi-4.4.3/prebuilt/linux-x86/bin/../lib/gcc/arm-linux-androideabi/4.4.3/libgcc.a(_arm_truncdfsf2.o)
 .debug_line    0x00008ee3      0x120 /home/n-brulez/dev/sdk/android-ndk-r7/toolchains/arm-linux-androideabi-4.4.3/prebuilt/linux-x86/bin/../lib/gcc/arm-linux-androideabi/4.4.3/libgcc.a(_arm_addsubsf3.o)
 .debug_line    0x00009003      0x141 /home/n-brulez/dev/sdk/android-ndk-r7/toolchains/arm-linux-androideabi-4.4.3/prebuilt/linux-x86/bin/../lib/gcc/arm-linux-androideabi/4.4.3/libgcc.a(_arm_muldivsf3.o)
 .debug_line    0x00009144      0x108 /home/n-brulez/dev/sdk/android-ndk-r7/toolchains/arm-linux-androideabi-4.4.3/prebuilt/linux-x86/bin/../lib/gcc/arm-linux-androideabi/4.4.3/libgcc.a(_arm_cmpsf2.o)
 .debug_line    0x0000924c       0x94 /home/n-brulez/dev/sdk/android-ndk-r7/toolchains/arm-linux-androideabi-4.4.3/prebuilt/linux-x86/bin/../lib/gcc/arm-linux-androideabi/4.4.3/libgcc.a(_arm_fixunssfsi.o)
 .debug_line    0x000092e0       0x81 /home/n-brulez/dev/sdk/android-ndk-r7/toolchains/arm-linux-androideabi-4.4.3/prebuilt/linux-x86/bin/../lib/gcc/arm-linux-androideabi/4.4.3/libgcc.a(_aeabi_ldivmod.o)
 .debug_line    0x00009361       0x81 /home/n-brulez/dev/sdk/android-ndk-r7/toolchains/arm-linux-androideabi-4.4.3/prebuilt/linux-x86/bin/../lib/gcc/arm-linux-androideabi/4.4.3/libgcc.a(_aeabi_uldivmod.o)
 .debug_line    0x000093e2       0x87 /home/n-brulez/dev/sdk/android-ndk-r7/toolchains/arm-linux-androideabi-4.4.3/prebuilt/linux-x86/bin/../lib/gcc/arm-linux-androideabi/4.4.3/libgcc.a(_dvmd_lnx.o)
 .debug_line    0x00009469       0x87 /home/n-brulez/dev/sdk/android-ndk-r7/toolchains/arm-linux-androideabi-4.4.3/prebuilt/linux-x86/bin/../lib/gcc/arm-linux-androideabi/4.4.3/libgcc.a(bpabi.o)
 .debug_line    0x000094f0      0x4e3 /home/n-brulez/dev/sdk/android-ndk-r7/toolchains/arm-linux-androideabi-4.4.3/prebuilt/linux-x86/bin/../lib/gcc/arm-linux-androideabi/4.4.3/libgcc.a(unwind-arm.o)
 .debug_line    0x000099d3       0xcd /home/n-brulez/dev/sdk/android-ndk-r7/toolchains/arm-linux-androideabi-4.4.3/prebuilt/linux-x86/bin/../lib/gcc/arm-linux-androideabi/4.4.3/libgcc.a(libunwind.o)
 .debug_line    0x00009aa0      0x1aa /home/n-brulez/dev/sdk/android-ndk-r7/toolchains/arm-linux-androideabi-4.4.3/prebuilt/linux-x86/bin/../lib/gcc/arm-linux-androideabi/4.4.3/libgcc.a(pr-support.o)
 .debug_line    0x00009c4a      0x227 /home/n-brulez/dev/sdk/android-ndk-r7/toolchains/arm-linux-androideabi-4.4.3/prebuilt/linux-x86/bin/../lib/gcc/arm-linux-androideabi/4.4.3/libgcc.a(_divdi3.o)
 .debug_line    0x00009e71      0x217 /home/n-brulez/dev/sdk/android-ndk-r7/toolchains/arm-linux-androideabi-4.4.3/prebuilt/linux-x86/bin/../lib/gcc/arm-linux-androideabi/4.4.3/libgcc.a(_udivdi3.o)

.debug_frame    0x00000000     0x6280
 *(.debug_frame)
 .debug_frame   0x00000000      0x13c ./obj/local/armeabi-v7a/objs/adfreeflight/app.o
 .debug_frame   0x0000013c       0x78 ./obj/local/armeabi-v7a/objs/adfreeflight/video_stage_io_file.o
 .debug_frame   0x000001b4       0xac ./obj/local/armeabi-v7a/objs/adfreeflight/hardware_capabilites.o
 .debug_frame   0x00000260      0x1ec ./obj/local/armeabi-v7a/objs/adfreeflight/Controller/ardrone_controller.o
 .debug_frame   0x0000044c       0xdc ./obj/local/armeabi-v7a/objs/adfreeflight/ControlData.o
 .debug_frame   0x00000528       0x8c ./obj/local/armeabi-v7a/objs/adfreeflight/Callbacks/drone_proxy_callbacks.o
 .debug_frame   0x000005b4      0x130 ./obj/local/armeabi-v7a/objs/adfreeflight/Callbacks/java_callbacks.o
 .debug_frame   0x000006e4       0x38 ./obj/local/armeabi-v7a/objs/adfreeflight/Plf/plf.o
 .debug_frame   0x0000071c      0x394 ./obj/local/armeabi-v7a/objs/adfreeflight/Stubs/drone_stub.o
 .debug_frame   0x00000ab0      0x208 ./obj/local/armeabi-v7a/objs/adfreeflight/Stubs/drone_config_stub.o
 .debug_frame   0x00000cb8      0x234 ./obj/local/armeabi-v7a/objs/adfreeflight/Stubs/ftp_client_stub.o
 .debug_frame   0x00000eec       0x44 ./obj/local/armeabi-v7a/objs/adfreeflight/Stubs/plf_file_stub.o
 .debug_frame   0x00000f30      0x1b0 ./obj/local/armeabi-v7a/objs/adfreeflight/Stubs/transcoding_service_stub.o
 .debug_frame   0x000010e0       0x74 ./obj/local/armeabi-v7a/objs/adfreeflight/Stubs/gl_bg_video_sprite_stub.o
 .debug_frame   0x00001154       0xa4 ./obj/local/armeabi-v7a/objs/adfreeflight/NavData/nav_data.o
 .debug_frame   0x000011f8       0x50 ./obj/local/armeabi-v7a/objs/adfreeflight/Video/video_stage_renderer.o
 .debug_frame   0x00001248       0x4c ./obj/local/armeabi-v7a/objs/adfreeflight/Video/frame_rate.o
 .debug_frame   0x00001294       0x64 ./obj/local/armeabi-v7a/objs/adfreeflight/Controller/virtual_gamepad.o
 .debug_frame   0x000012f8       0x80 ./obj/local/armeabi-v7a/objs/adfreeflight/Video/opengl_stage.o
 .debug_frame   0x00001378       0x8c ./obj/local/armeabi-v7a/objs/adfreeflight/Video/opengl_shader.o
 .debug_frame   0x00001404       0x90 ./obj/local/armeabi-v7a/objs/adfreeflight/Video/opengl_texture.o
 .debug_frame   0x00001494      0x114 ./obj/local/armeabi-v7a/h264_dec_lib.a(decoder_api_main.rel.rvds.o)
 .debug_frame   0x000015a8      0x290 ./obj/local/armeabi-v7a/h264_dec_lib.a(h264dec_ittiam_api_define.rel.rvds.o)
 .debug_frame   0x00001838      0x164 ./obj/local/armeabi-v7a/h264_dec_lib.a(cncl.rel.rvds.o)
 .debug_frame   0x0000199c       0xf4 ./obj/local/armeabi-v7a/h264_dec_lib.a(bufapi_ittiam_ialg.rel.rvds.o)
 .debug_frame   0x00001a90      0x1c8 ./obj/local/armeabi-v7a/h264_dec_lib.a(bufferAPI.rel.rvds.o)
 .debug_frame   0x00001c58      0x190 ./obj/local/armeabi-v7a/h264_dec_lib.a(decInterface.rel.rvds.o)
 .debug_frame   0x00001de8      0x27c ./obj/local/armeabi-v7a/h264_dec_lib.a(decPicDelimitProc.rel.rvds.o)
 .debug_frame   0x00002064      0x1e4 ./obj/local/armeabi-v7a/h264_dec_lib.a(decodeSlice.rel.rvds.o)
 .debug_frame   0x00002248      0x29c ./obj/local/armeabi-v7a/h264_dec_lib.a(decodeUVLC.rel.rvds.o)
 .debug_frame   0x000024e4      0x2bc ./obj/local/armeabi-v7a/h264_dec_lib.a(dpbManager.rel.rvds.o)
 .debug_frame   0x000027a0       0xb8 ./obj/local/armeabi-v7a/h264_dec_lib.a(dpb_opt.rel.rvds.o)
 .debug_frame   0x00002858       0x98 ./obj/local/armeabi-v7a/h264_dec_lib.a(errorhandler.rel.rvds.o)
 .debug_frame   0x000028f0       0x90 ./obj/local/armeabi-v7a/h264_dec_lib.a(gaps_in_frm.rel.rvds.o)
 .debug_frame   0x00002980       0xfc ./obj/local/armeabi-v7a/h264_dec_lib.a(memRequest.rel.rvds.o)
 .debug_frame   0x00002a7c       0xbc ./obj/local/armeabi-v7a/h264_dec_lib.a(memoryAPI.rel.rvds.o)
 .debug_frame   0x00002b38       0xd8 ./obj/local/armeabi-v7a/h264_dec_lib.a(nal.rel.rvds.o)
 .debug_frame   0x00002c10       0x90 ./obj/local/armeabi-v7a/h264_dec_lib.a(format_conv_to_422i.rel.rvds.o)
 .debug_frame   0x00002ca0       0xbc ./obj/local/armeabi-v7a/h264_dec_lib.a(MotionCompensate.rel.rvds.o)
 .debug_frame   0x00002d5c      0x1c4 ./obj/local/armeabi-v7a/h264_dec_lib.a(ParseSyntax.rel.rvds.o)
 .debug_frame   0x00002f20       0xc0 ./obj/local/armeabi-v7a/h264_dec_lib.a(decBitStream.rel.rvds.o)
 .debug_frame   0x00002fe0       0xc4 ./obj/local/armeabi-v7a/h264_dec_lib.a(decComputBS.rel.rvds.o)
 .debug_frame   0x000030a4       0x80 ./obj/local/armeabi-v7a/h264_dec_lib.a(decComputeQp.rel.rvds.o)
 .debug_frame   0x00003124      0x20c ./obj/local/armeabi-v7a/h264_dec_lib.a(decDeblocking.rel.rvds.o)
 .debug_frame   0x00003330      0x150 ./obj/local/armeabi-v7a/h264_dec_lib.a(decHiLevSyntax.rel.rvds.o)
 .debug_frame   0x00003480       0xe0 ./obj/local/armeabi-v7a/h264_dec_lib.a(decMotionVector.rel.rvds.o)
 .debug_frame   0x00003560       0x88 ./obj/local/armeabi-v7a/h264_dec_lib.a(decodeISlice.rel.rvds.o)
 .debug_frame   0x000035e8       0x84 ./obj/local/armeabi-v7a/h264_dec_lib.a(decodeIntraMB.rel.rvds.o)
 .debug_frame   0x0000366c       0xd0 ./obj/local/armeabi-v7a/h264_dec_lib.a(decodePSlice.rel.rvds.o)
 .debug_frame   0x0000373c       0x88 ./obj/local/armeabi-v7a/h264_dec_lib.a(decodeResidual.rel.rvds.o)
 .debug_frame   0x000037c4      0x100 ./obj/local/armeabi-v7a/h264_dec_lib.a(sei.rel.rvds.o)
 .debug_frame   0x000038c4       0x74 ./obj/local/armeabi-v7a/h264_dec_lib.a(utils.rel.rvds.o)
 .debug_frame   0x00003938       0xa0 ./obj/local/armeabi-v7a/h264_dec_lib.a(vui.rel.rvds.o)
 .debug_frame   0x000039d8      0x154 ./obj/local/armeabi-v7a/h264_dec_lib.a(ParsePSyntax.rel.rvds.o)
 .debug_frame   0x00003b2c       0xa8 ./obj/local/armeabi-v7a/h264_dec_lib.a(decMbUtils.rel.rvds.o)
 .debug_frame   0x00003bd4       0x94 ./obj/local/armeabi-v7a/h264_dec_lib.a(DecodeSyntax.rel.rvds.o)
 .debug_frame   0x00003c68      0x3fc ./obj/local/armeabi-v7a/mpeg4_asp_dec_lib.a(decoder_api_main.o)
 .debug_frame   0x00004064       0x88 ./obj/local/armeabi-v7a/mpeg4_asp_dec_lib.a(inv_ac_dc_pred.o)
 .debug_frame   0x000040ec       0x8c ./obj/local/armeabi-v7a/mpeg4_asp_dec_lib.a(inv_ac_dc_pred.o)
 .debug_frame   0x00004178       0xf4 ./obj/local/armeabi-v7a/mpeg4_asp_dec_lib.a(it_picbuf.o)
 .debug_frame   0x0000426c       0x88 ./obj/local/armeabi-v7a/mpeg4_asp_dec_lib.a(it_picbuf.o)
 .debug_frame   0x000042f4      0x10c ./obj/local/armeabi-v7a/mpeg4_asp_dec_lib.a(mv_decode.o)
 .debug_frame   0x00004400      0x264 ./obj/local/armeabi-v7a/mpeg4_asp_dec_lib.a(mv_decode.o)
 .debug_frame   0x00004664       0x74 ./obj/local/armeabi-v7a/mpeg4_asp_dec_lib.a(save_restore_cntx.o)
 .debug_frame   0x000046d8       0x88 ./obj/local/armeabi-v7a/mpeg4_asp_dec_lib.a(utils.o)
 .debug_frame   0x00004760      0x1b0 ./obj/local/armeabi-v7a/mpeg4_asp_dec_lib.a(videobitstream.o)
 .debug_frame   0x00004910       0xd0 ./obj/local/armeabi-v7a/mpeg4_asp_dec_lib.a(videobitstream.o)
 .debug_frame   0x000049e0       0x90 ./obj/local/armeabi-v7a/mpeg4_asp_dec_lib.a(format_conv_to_422i.o)
 .debug_frame   0x00004a70      0x168 ./obj/local/armeabi-v7a/mpeg4_asp_dec_lib.a(basebitstream.o)
 .debug_frame   0x00004bd8       0xc8 ./obj/local/armeabi-v7a/mpeg4_asp_dec_lib.a(bitstream.o)
 .debug_frame   0x00004ca0      0x170 ./obj/local/armeabi-v7a/mpeg4_asp_dec_lib.a(bitstream.o)
 .debug_frame   0x00004e10      0x190 ./obj/local/armeabi-v7a/mpeg4_asp_dec_lib.a(blockdecode.o)
 .debug_frame   0x00004fa0       0xb0 ./obj/local/armeabi-v7a/mpeg4_asp_dec_lib.a(decodebvop.o)
 .debug_frame   0x00005050       0xac ./obj/local/armeabi-v7a/mpeg4_asp_dec_lib.a(decodeivop.o)
 .debug_frame   0x000050fc       0xd8 ./obj/local/armeabi-v7a/mpeg4_asp_dec_lib.a(decodeivop.o)
 .debug_frame   0x000051d4       0xac ./obj/local/armeabi-v7a/mpeg4_asp_dec_lib.a(decodepvop.o)
 .debug_frame   0x00005280      0x13c ./obj/local/armeabi-v7a/mpeg4_asp_dec_lib.a(decodepvop.o)
 .debug_frame   0x000053bc       0x8c ./obj/local/armeabi-v7a/mpeg4_asp_dec_lib.a(dequantizer.o)
 .debug_frame   0x00005448       0x74 ./obj/local/armeabi-v7a/mpeg4_asp_dec_lib.a(global_error_hadler.o)
 .debug_frame   0x000054bc      0x114 ./obj/local/armeabi-v7a/mpeg4_asp_dec_lib.a(idct.o)
 .debug_frame   0x000055d0       0x80 ./obj/local/armeabi-v7a/mpeg4_asp_dec_lib.a(interlace.o)
 .debug_frame   0x00005650      0x20c ./obj/local/armeabi-v7a/mpeg4_asp_dec_lib.a(interlace.o)
 .debug_frame   0x0000585c      0x244 ./obj/local/armeabi-v7a/mpeg4_asp_dec_lib.a(motioncompensate.o)
 .debug_frame   0x00005aa0       0xe4 ./obj/local/armeabi-v7a/mpeg4_asp_dec_lib.a(motioncompensate.o)
 .debug_frame   0x00005b84       0x84 ./obj/local/armeabi-v7a/mpeg4_asp_dec_lib.a(rvlc.o)
 .debug_frame   0x00005c08       0x84 ./obj/local/armeabi-v7a/mpeg4_asp_dec_lib.a(vldecoder.o)
 .debug_frame   0x00005c8c       0x88 ./obj/local/armeabi-v7a/mpeg4_asp_dec_lib.a(vldecoder.o)
 .debug_frame   0x00005d14       0xe0 ./obj/local/armeabi-v7a/sys_utils.a(it_mem.o)
 .debug_frame   0x00005df4       0x28 /home/n-brulez/dev/sdk/android-ndk-r7/toolchains/arm-linux-androideabi-4.4.3/prebuilt/linux-x86/bin/../lib/gcc/arm-linux-androideabi/4.4.3/libgcc.a(_udivsi3.o)
 .debug_frame   0x00005e1c       0x28 /home/n-brulez/dev/sdk/android-ndk-r7/toolchains/arm-linux-androideabi-4.4.3/prebuilt/linux-x86/bin/../lib/gcc/arm-linux-androideabi/4.4.3/libgcc.a(_divsi3.o)
 .debug_frame   0x00005e44       0x60 /home/n-brulez/dev/sdk/android-ndk-r7/toolchains/arm-linux-androideabi-4.4.3/prebuilt/linux-x86/bin/../lib/gcc/arm-linux-androideabi/4.4.3/libgcc.a(bpabi.o)
 .debug_frame   0x00005ea4      0x248 /home/n-brulez/dev/sdk/android-ndk-r7/toolchains/arm-linux-androideabi-4.4.3/prebuilt/linux-x86/bin/../lib/gcc/arm-linux-androideabi/4.4.3/libgcc.a(unwind-arm.o)
 .debug_frame   0x000060ec      0x108 /home/n-brulez/dev/sdk/android-ndk-r7/toolchains/arm-linux-androideabi-4.4.3/prebuilt/linux-x86/bin/../lib/gcc/arm-linux-androideabi/4.4.3/libgcc.a(pr-support.o)
 .debug_frame   0x000061f4       0x44 /home/n-brulez/dev/sdk/android-ndk-r7/toolchains/arm-linux-androideabi-4.4.3/prebuilt/linux-x86/bin/../lib/gcc/arm-linux-androideabi/4.4.3/libgcc.a(_divdi3.o)
 .debug_frame   0x00006238       0x48 /home/n-brulez/dev/sdk/android-ndk-r7/toolchains/arm-linux-androideabi-4.4.3/prebuilt/linux-x86/bin/../lib/gcc/arm-linux-androideabi/4.4.3/libgcc.a(_udivdi3.o)

.debug_str      0x00000000     0xb966
 *(.debug_str)
 .debug_str     0x00000000     0x5762 ./obj/local/armeabi-v7a/objs/adfreeflight/app.o
                               0x5bd0 (size before relaxing)
 .debug_str     0x00005762      0x138 ./obj/local/armeabi-v7a/objs/adfreeflight/video_stage_io_file.o
                                0x6eb (size before relaxing)
 .debug_str     0x0000589a      0x29a ./obj/local/armeabi-v7a/objs/adfreeflight/hardware_capabilites.o
                                0x717 (size before relaxing)
 .debug_str     0x00005b34      0xa9b ./obj/local/armeabi-v7a/objs/adfreeflight/Controller/ardrone_controller.o
                                0xcf7 (size before relaxing)
 .debug_str     0x000065cf      0x480 ./obj/local/armeabi-v7a/objs/adfreeflight/ControlData.o
                               0x113d (size before relaxing)
 .debug_str     0x00006a4f       0xba ./obj/local/armeabi-v7a/objs/adfreeflight/Callbacks/drone_proxy_callbacks.o
                               0x184c (size before relaxing)
 .debug_str     0x00006b09      0x145 ./obj/local/armeabi-v7a/objs/adfreeflight/Callbacks/java_callbacks.o
                               0x18e4 (size before relaxing)
 .debug_str     0x00006c4e       0xaf ./obj/local/armeabi-v7a/objs/adfreeflight/Plf/plf.o
                                0x257 (size before relaxing)
 .debug_str     0x00006cfd     0x20d7 ./obj/local/armeabi-v7a/objs/adfreeflight/Stubs/drone_stub.o
                               0x44eb (size before relaxing)
 .debug_str     0x00008dd4      0x4a4 ./obj/local/armeabi-v7a/objs/adfreeflight/Stubs/drone_config_stub.o
                               0x2395 (size before relaxing)
 .debug_str     0x00009278      0x5af ./obj/local/armeabi-v7a/objs/adfreeflight/Stubs/ftp_client_stub.o
                               0x1dc4 (size before relaxing)
 .debug_str     0x00009827       0x7a ./obj/local/armeabi-v7a/objs/adfreeflight/Stubs/plf_file_stub.o
                               0x189e (size before relaxing)
 .debug_str     0x000098a1      0xd9e ./obj/local/armeabi-v7a/objs/adfreeflight/Stubs/transcoding_service_stub.o
                               0x61f9 (size before relaxing)
 .debug_str     0x0000a63f      0x336 ./obj/local/armeabi-v7a/objs/adfreeflight/Stubs/gl_bg_video_sprite_stub.o
                               0x545e (size before relaxing)
 .debug_str     0x0000a975      0x12d ./obj/local/armeabi-v7a/objs/adfreeflight/NavData/nav_data.o
                               0x1abf (size before relaxing)
 .debug_str     0x0000aaa2       0xef ./obj/local/armeabi-v7a/objs/adfreeflight/Video/video_stage_renderer.o
                               0x17d1 (size before relaxing)
 .debug_str     0x0000ab91       0x87 ./obj/local/armeabi-v7a/objs/adfreeflight/Video/frame_rate.o
                                0x2d5 (size before relaxing)
 .debug_str     0x0000ac18       0x4f ./obj/local/armeabi-v7a/objs/adfreeflight/Controller/virtual_gamepad.o
                                0x4a7 (size before relaxing)
 .debug_str     0x0000ac67       0xe4 ./obj/local/armeabi-v7a/objs/adfreeflight/Video/opengl_stage.o
                               0x3f49 (size before relaxing)
 .debug_str     0x0000ad4b       0xca ./obj/local/armeabi-v7a/objs/adfreeflight/Video/opengl_shader.o
                                0x270 (size before relaxing)
 .debug_str     0x0000ae15       0xc7 ./obj/local/armeabi-v7a/objs/adfreeflight/Video/opengl_texture.o
                                0x68c (size before relaxing)
 .debug_str     0x0000aedc       0x89 /home/n-brulez/dev/sdk/android-ndk-r7/toolchains/arm-linux-androideabi-4.4.3/prebuilt/linux-x86/bin/../lib/gcc/arm-linux-androideabi/4.4.3/libgcc.a(bpabi.o)
                                 0xba (size before relaxing)
 .debug_str     0x0000af65      0x7d0 /home/n-brulez/dev/sdk/android-ndk-r7/toolchains/arm-linux-androideabi-4.4.3/prebuilt/linux-x86/bin/../lib/gcc/arm-linux-androideabi/4.4.3/libgcc.a(unwind-arm.o)
                                0x8d0 (size before relaxing)
 .debug_str     0x0000b735      0x119 /home/n-brulez/dev/sdk/android-ndk-r7/toolchains/arm-linux-androideabi-4.4.3/prebuilt/linux-x86/bin/../lib/gcc/arm-linux-androideabi/4.4.3/libgcc.a(pr-support.o)
                                0x436 (size before relaxing)
 .debug_str     0x0000b84e      0x10e /home/n-brulez/dev/sdk/android-ndk-r7/toolchains/arm-linux-androideabi-4.4.3/prebuilt/linux-x86/bin/../lib/gcc/arm-linux-androideabi/4.4.3/libgcc.a(_divdi3.o)
                                0x1d7 (size before relaxing)
 .debug_str     0x0000b95c        0xa /home/n-brulez/dev/sdk/android-ndk-r7/toolchains/arm-linux-androideabi-4.4.3/prebuilt/linux-x86/bin/../lib/gcc/arm-linux-androideabi/4.4.3/libgcc.a(_udivdi3.o)
                                0x1d8 (size before relaxing)

.debug_loc      0x00000000     0x6ca6
 *(.debug_loc)
 .debug_loc     0x00000000      0x23f ./obj/local/armeabi-v7a/objs/adfreeflight/app.o
 .debug_loc     0x0000023f      0x109 ./obj/local/armeabi-v7a/objs/adfreeflight/video_stage_io_file.o
 .debug_loc     0x00000348      0x218 ./obj/local/armeabi-v7a/objs/adfreeflight/hardware_capabilites.o
 .debug_loc     0x00000560      0x302 ./obj/local/armeabi-v7a/objs/adfreeflight/Controller/ardrone_controller.o
 .debug_loc     0x00000862      0x195 ./obj/local/armeabi-v7a/objs/adfreeflight/ControlData.o
 .debug_loc     0x000009f7      0x181 ./obj/local/armeabi-v7a/objs/adfreeflight/Callbacks/drone_proxy_callbacks.o
 .debug_loc     0x00000b78      0x599 ./obj/local/armeabi-v7a/objs/adfreeflight/Callbacks/java_callbacks.o
 .debug_loc     0x00001111       0xe7 ./obj/local/armeabi-v7a/objs/adfreeflight/Plf/plf.o
 .debug_loc     0x000011f8      0xeda ./obj/local/armeabi-v7a/objs/adfreeflight/Stubs/drone_stub.o
 .debug_loc     0x000020d2      0x61b ./obj/local/armeabi-v7a/objs/adfreeflight/Stubs/drone_config_stub.o
 .debug_loc     0x000026ed      0xa7d ./obj/local/armeabi-v7a/objs/adfreeflight/Stubs/ftp_client_stub.o
 .debug_loc     0x0000316a       0xef ./obj/local/armeabi-v7a/objs/adfreeflight/Stubs/plf_file_stub.o
 .debug_loc     0x00003259      0x8be ./obj/local/armeabi-v7a/objs/adfreeflight/Stubs/transcoding_service_stub.o
 .debug_loc     0x00003b17      0x226 ./obj/local/armeabi-v7a/objs/adfreeflight/Stubs/gl_bg_video_sprite_stub.o
 .debug_loc     0x00003d3d      0x149 ./obj/local/armeabi-v7a/objs/adfreeflight/NavData/nav_data.o
 .debug_loc     0x00003e86       0x13 ./obj/local/armeabi-v7a/objs/adfreeflight/Video/video_stage_renderer.o
 .debug_loc     0x00003e99       0x4c ./obj/local/armeabi-v7a/objs/adfreeflight/Video/frame_rate.o
 .debug_loc     0x00003ee5       0x60 ./obj/local/armeabi-v7a/objs/adfreeflight/Controller/virtual_gamepad.o
 .debug_loc     0x00003f45       0xe0 ./obj/local/armeabi-v7a/objs/adfreeflight/Video/opengl_stage.o
 .debug_loc     0x00004025      0x1e7 ./obj/local/armeabi-v7a/objs/adfreeflight/Video/opengl_shader.o
 .debug_loc     0x0000420c      0x161 ./obj/local/armeabi-v7a/objs/adfreeflight/Video/opengl_texture.o
 .debug_loc     0x0000436d      0x82c ./obj/local/armeabi-v7a/h264_dec_lib.a(cncl.rel.rvds.o)
 .debug_loc     0x00004b99      0x120 /home/n-brulez/dev/sdk/android-ndk-r7/toolchains/arm-linux-androideabi-4.4.3/prebuilt/linux-x86/bin/../lib/gcc/arm-linux-androideabi/4.4.3/libgcc.a(bpabi.o)
 .debug_loc     0x00004cb9      0xfef /home/n-brulez/dev/sdk/android-ndk-r7/toolchains/arm-linux-androideabi-4.4.3/prebuilt/linux-x86/bin/../lib/gcc/arm-linux-androideabi/4.4.3/libgcc.a(unwind-arm.o)
 .debug_loc     0x00005ca8      0x2f9 /home/n-brulez/dev/sdk/android-ndk-r7/toolchains/arm-linux-androideabi-4.4.3/prebuilt/linux-x86/bin/../lib/gcc/arm-linux-androideabi/4.4.3/libgcc.a(pr-support.o)
 .debug_loc     0x00005fa1      0x6cf /home/n-brulez/dev/sdk/android-ndk-r7/toolchains/arm-linux-androideabi-4.4.3/prebuilt/linux-x86/bin/../lib/gcc/arm-linux-androideabi/4.4.3/libgcc.a(_divdi3.o)
 .debug_loc     0x00006670      0x636 /home/n-brulez/dev/sdk/android-ndk-r7/toolchains/arm-linux-androideabi-4.4.3/prebuilt/linux-x86/bin/../lib/gcc/arm-linux-androideabi/4.4.3/libgcc.a(_udivdi3.o)

.debug_macinfo  0x00000000      0xa38
 *(.debug_macinfo)
 .debug_macinfo
                0x00000000       0x6c ./obj/local/armeabi-v7a/h264_dec_lib.a(cncl.rel.rvds.o)
 .debug_macinfo
                0x0000006c      0x2cc ./obj/local/armeabi-v7a/h264_dec_lib.a(cncl.rel.rvds.o)
 .debug_macinfo
                0x00000338      0x1b4 ./obj/local/armeabi-v7a/h264_dec_lib.a(cncl.rel.rvds.o)
 .debug_macinfo
                0x000004ec       0x10 ./obj/local/armeabi-v7a/h264_dec_lib.a(cncl.rel.rvds.o)
 .debug_macinfo
                0x000004fc       0x90 ./obj/local/armeabi-v7a/h264_dec_lib.a(cncl.rel.rvds.o)
 .debug_macinfo
                0x0000058c       0x1c ./obj/local/armeabi-v7a/h264_dec_lib.a(cncl.rel.rvds.o)
 .debug_macinfo
                0x000005a8       0x40 ./obj/local/armeabi-v7a/h264_dec_lib.a(cncl.rel.rvds.o)
 .debug_macinfo
                0x000005e8       0x24 ./obj/local/armeabi-v7a/h264_dec_lib.a(cncl.rel.rvds.o)
 .debug_macinfo
                0x0000060c      0x42c ./obj/local/armeabi-v7a/h264_dec_lib.a(cncl.rel.rvds.o)

.debug_weaknames
 *(.debug_weaknames)

.debug_funcnames
 *(.debug_funcnames)

.debug_typenames
 *(.debug_typenames)

.debug_varnames
 *(.debug_varnames)

.debug_pubtypes
 *(.debug_pubtypes)

.debug_ranges   0x00000000      0xf38
 *(.debug_ranges)
 .debug_ranges  0x00000000      0x1f8 ./obj/local/armeabi-v7a/objs/adfreeflight/app.o
 .debug_ranges  0x000001f8       0x20 ./obj/local/armeabi-v7a/objs/adfreeflight/video_stage_io_file.o
 .debug_ranges  0x00000218       0x30 ./obj/local/armeabi-v7a/objs/adfreeflight/hardware_capabilites.o
 .debug_ranges  0x00000248       0xa8 ./obj/local/armeabi-v7a/objs/adfreeflight/Controller/ardrone_controller.o
 .debug_ranges  0x000002f0       0x50 ./obj/local/armeabi-v7a/objs/adfreeflight/ControlData.o
 .debug_ranges  0x00000340       0x48 ./obj/local/armeabi-v7a/objs/adfreeflight/Callbacks/drone_proxy_callbacks.o
 .debug_ranges  0x00000388       0x40 ./obj/local/armeabi-v7a/objs/adfreeflight/Callbacks/java_callbacks.o
 .debug_ranges  0x000003c8       0x10 ./obj/local/armeabi-v7a/objs/adfreeflight/Plf/plf.o
 .debug_ranges  0x000003d8      0x188 ./obj/local/armeabi-v7a/objs/adfreeflight/Stubs/drone_stub.o
 .debug_ranges  0x00000560       0xc0 ./obj/local/armeabi-v7a/objs/adfreeflight/Stubs/drone_config_stub.o
 .debug_ranges  0x00000620       0x78 ./obj/local/armeabi-v7a/objs/adfreeflight/Stubs/ftp_client_stub.o
 .debug_ranges  0x00000698       0x40 ./obj/local/armeabi-v7a/objs/adfreeflight/Stubs/plf_file_stub.o
 .debug_ranges  0x000006d8      0x3d0 ./obj/local/armeabi-v7a/objs/adfreeflight/Stubs/transcoding_service_stub.o
 .debug_ranges  0x00000aa8       0x38 ./obj/local/armeabi-v7a/objs/adfreeflight/Stubs/gl_bg_video_sprite_stub.o
 .debug_ranges  0x00000ae0       0x30 ./obj/local/armeabi-v7a/objs/adfreeflight/NavData/nav_data.o
 .debug_ranges  0x00000b10       0x28 ./obj/local/armeabi-v7a/objs/adfreeflight/Video/video_stage_renderer.o
 .debug_ranges  0x00000b38       0x18 ./obj/local/armeabi-v7a/objs/adfreeflight/Video/frame_rate.o
 .debug_ranges  0x00000b50       0x20 ./obj/local/armeabi-v7a/objs/adfreeflight/Controller/virtual_gamepad.o
 .debug_ranges  0x00000b70       0x28 ./obj/local/armeabi-v7a/objs/adfreeflight/Video/opengl_stage.o
 .debug_ranges  0x00000b98       0x28 ./obj/local/armeabi-v7a/objs/adfreeflight/Video/opengl_shader.o
 .debug_ranges  0x00000bc0       0x28 ./obj/local/armeabi-v7a/objs/adfreeflight/Video/opengl_texture.o
 .debug_ranges  0x00000be8      0x1f8 /home/n-brulez/dev/sdk/android-ndk-r7/toolchains/arm-linux-androideabi-4.4.3/prebuilt/linux-x86/bin/../lib/gcc/arm-linux-androideabi/4.4.3/libgcc.a(unwind-arm.o)
 .debug_ranges  0x00000de0       0x30 /home/n-brulez/dev/sdk/android-ndk-r7/toolchains/arm-linux-androideabi-4.4.3/prebuilt/linux-x86/bin/../lib/gcc/arm-linux-androideabi/4.4.3/libgcc.a(pr-support.o)
 .debug_ranges  0x00000e10       0xa0 /home/n-brulez/dev/sdk/android-ndk-r7/toolchains/arm-linux-androideabi-4.4.3/prebuilt/linux-x86/bin/../lib/gcc/arm-linux-androideabi/4.4.3/libgcc.a(_divdi3.o)
 .debug_ranges  0x00000eb0       0x88 /home/n-brulez/dev/sdk/android-ndk-r7/toolchains/arm-linux-androideabi-4.4.3/prebuilt/linux-x86/bin/../lib/gcc/arm-linux-androideabi/4.4.3/libgcc.a(_udivdi3.o)

.gnu.attributes
 *(.gnu.attributes)

.note.gnu.arm.ident
 *(.note.gnu.arm.ident)

/DISCARD/
 *(.note.GNU-stack)
 *(.gnu_debuglink)
 *(.gnu.lto_*)
OUTPUT(obj/local/armeabi-v7a/libadfreeflight.so elf32-littlearm)

.debug_frame$$$.text
                0x00000000      0xae0
 .debug_frame$$$.text
                0x00000000       0x84 ./obj/local/armeabi-v7a/h264_dec_lib.a(arm_computeBS.rel.rvds.o)
 .debug_frame$$$.text
                0x00000084       0x64 ./obj/local/armeabi-v7a/h264_dec_lib.a(arm_copyRef.rel.rvds.o)
 .debug_frame$$$.text
                0x000000e8      0x154 ./obj/local/armeabi-v7a/h264_dec_lib.a(arm_doIntraPredNon4x4.rel.rvds.o)
 .debug_frame$$$.text
                0x0000023c       0x64 ./obj/local/armeabi-v7a/h264_dec_lib.a(arm_interpolateChroma.rel.rvds.o)
 .debug_frame$$$.text
                0x000002a0       0xa4 ./obj/local/armeabi-v7a/h264_dec_lib.a(arm_rep_mv_colz.rel.rvds.o)
 .debug_frame$$$.text
                0x00000344       0x64 ./obj/local/armeabi-v7a/h264_dec_lib.a(arm_sixtapHVInterpolHPelGrid.rel.rvds.o)
 .debug_frame$$$.text
                0x000003a8       0x64 ./obj/local/armeabi-v7a/h264_dec_lib.a(arm_sixtapHorizInterpolQsamp.rel.rvds.o)
 .debug_frame$$$.text
                0x0000040c       0x64 ./obj/local/armeabi-v7a/h264_dec_lib.a(arm_sixtapVHInterpolHPelGrid.rel.rvds.o)
 .debug_frame$$$.text
                0x00000470       0x64 ./obj/local/armeabi-v7a/h264_dec_lib.a(arm_sixtapVHInterpolQSamp.rel.rvds.o)
 .debug_frame$$$.text
                0x000004d4       0x64 ./obj/local/armeabi-v7a/h264_dec_lib.a(arm_sixtapVertInterpolQsamp.rel.rvds.o)
 .debug_frame$$$.text
                0x00000538       0x64 ./obj/local/armeabi-v7a/h264_dec_lib.a(arm_sixtapfilt2dHV.rel.rvds.o)
 .debug_frame$$$.text
                0x0000059c       0x64 ./obj/local/armeabi-v7a/h264_dec_lib.a(arm_sixtapfiltHoriz.rel.rvds.o)
 .debug_frame$$$.text
                0x00000600       0x64 ./obj/local/armeabi-v7a/h264_dec_lib.a(arm_sixtapfiltVert.rel.rvds.o)
 .debug_frame$$$.text
                0x00000664       0xa4 ./obj/local/armeabi-v7a/h264_dec_lib.a(arm_Padding.rel.rvds.o)
 .debug_frame$$$.text
                0x00000708       0xc4 ./obj/local/armeabi-v7a/h264_dec_lib.a(arm_default_weighted_Pred.rel.rvds.o)
 .debug_frame$$$.text
                0x000007cc       0xa4 ./obj/local/armeabi-v7a/h264_dec_lib.a(arm_idct.rel.rvds.o)
 .debug_frame$$$.text
                0x00000870      0x104 ./obj/local/armeabi-v7a/h264_dec_lib.a(arm_intra4x4_mb.rel.rvds.o)
 .debug_frame$$$.text
                0x00000974       0x44 ./obj/local/armeabi-v7a/h264_dec_lib.a(arm_getMotionVectorPredictor.rel.rvds.o)
 .debug_frame$$$.text
                0x000009b8       0x94 ./obj/local/armeabi-v7a/h264_dec_lib.a(arm_DeblkChroma.rel.rvds.o)
 .debug_frame$$$.text
                0x00000a4c       0x94 ./obj/local/armeabi-v7a/h264_dec_lib.a(arm_DeblkLuma.rel.rvds.o)

.debug_frame$$$format_conv_to_422i_cortexA8_neon
                0x00000000      0x1a0
 .debug_frame$$$format_conv_to_422i_cortexA8_neon
                0x00000000       0xc4 ./obj/local/armeabi-v7a/h264_dec_lib.a(format_conv_to_yuv422i.rel.rvds.o)
 .debug_frame$$$format_conv_to_422i_cortexA8_neon
                0x000000c4       0xdc ./obj/local/armeabi-v7a/mpeg4_asp_dec_lib.a(format_conv_to_yuv422i.o)

.debug_frame$$$mot_comp
                0x00000000      0x1a0
 .debug_frame$$$mot_comp
                0x00000000       0x44 ./obj/local/armeabi-v7a/h264_dec_lib.a(arm_memset.rel.rvds.o)
 .debug_frame$$$mot_comp
                0x00000044      0x15c ./obj/local/armeabi-v7a/mpeg4_asp_dec_lib.a(mot_comp_cortexA8_neon.o)

.debug_frame$$$mot_comp_interlace
                0x00000000      0x37c
 .debug_frame$$$mot_comp_interlace
                0x00000000       0x9c ./obj/local/armeabi-v7a/mpeg4_asp_dec_lib.a(ApplyFilter_n_GetQuarterPelVal_cortexA8_neon.o)
 .debug_frame$$$mot_comp_interlace
                0x0000009c       0xbc ./obj/local/armeabi-v7a/mpeg4_asp_dec_lib.a(interlace_mot_comp_notcoded_cortexA8_neon.o)
 .debug_frame$$$mot_comp_interlace
                0x00000158       0xbc ./obj/local/armeabi-v7a/mpeg4_asp_dec_lib.a(mot_comp_interlace_cortexA8_neon.o)
 .debug_frame$$$mot_comp_interlace
                0x00000214       0xbc ./obj/local/armeabi-v7a/mpeg4_asp_dec_lib.a(mc_AddBufferToBlkMatrix_funcs_cortexA8_neon.o)
 .debug_frame$$$mot_comp_interlace
                0x000002d0       0xac ./obj/local/armeabi-v7a/mpeg4_asp_dec_lib.a(mc_interpolate_buf_cortexA8_neon.o)

.debug_frame$$$mv_dec
                0x00000000       0xac
 .debug_frame$$$mv_dec
                0x00000000       0xac ./obj/local/armeabi-v7a/mpeg4_asp_dec_lib.a(mv_decode_cortexA8_neon.o)

.debug_frame$$$bit_stream
                0x00000000       0xac
 .debug_frame$$$bit_stream
                0x00000000       0xac ./obj/local/armeabi-v7a/mpeg4_asp_dec_lib.a(bitstream_cortexA8_neon.o)

.debug_frame$$$MPEG4_DEC_CS_PVOP_101
                0x00000000       0xac
 .debug_frame$$$MPEG4_DEC_CS_PVOP_101
                0x00000000       0xac ./obj/local/armeabi-v7a/mpeg4_asp_dec_lib.a(bitstream_cortexA8_neon.o)

.debug_frame$$$dequant
                0x00000000       0xbc
 .debug_frame$$$dequant
                0x00000000       0xbc ./obj/local/armeabi-v7a/mpeg4_asp_dec_lib.a(dequant_cortexA8_neon.o)

.debug_frame$$$idct_cortexA8_neon
                0x00000000       0xac
 .debug_frame$$$idct_cortexA8_neon
                0x00000000       0xac ./obj/local/armeabi-v7a/mpeg4_asp_dec_lib.a(idct_cortexA8_neon.o)

.debug_frame$$$AcDcPred
                0x00000000       0x8c
 .debug_frame$$$AcDcPred
                0x00000000       0x8c ./obj/local/armeabi-v7a/mpeg4_asp_dec_lib.a(inv_acdc_pred_cortexA8.o)
